   1              		.syntax unified
   2              		.cpu cortex-m4
   3              		.eabi_attribute 27, 3
   4              		.fpu fpv4-sp-d16
   5              		.eabi_attribute 20, 1
   6              		.eabi_attribute 21, 1
   7              		.eabi_attribute 23, 3
   8              		.eabi_attribute 24, 1
   9              		.eabi_attribute 25, 1
  10              		.eabi_attribute 26, 1
  11              		.eabi_attribute 30, 6
  12              		.eabi_attribute 34, 1
  13              		.eabi_attribute 18, 4
  14              		.thumb
  15              		.file	"stm32f4xx_exti.c"
  16              		.text
  17              	.Ltext0:
  18              		.cfi_sections	.debug_frame
  19              		.section	.text.EXTI_DeInit,"ax",%progbits
  20              		.align	2
  21              		.global	EXTI_DeInit
  22              		.thumb
  23              		.thumb_func
  25              	EXTI_DeInit:
  26              	.LFB110:
  27              		.file 1 "libs/STM32F4xx_StdPeriph_Driver/src/stm32f4xx_exti.c"
   1:libs/STM32F4xx_StdPeriph_Driver/src/stm32f4xx_exti.c **** /**
   2:libs/STM32F4xx_StdPeriph_Driver/src/stm32f4xx_exti.c ****   ******************************************************************************
   3:libs/STM32F4xx_StdPeriph_Driver/src/stm32f4xx_exti.c ****   * @file    stm32f4xx_exti.c
   4:libs/STM32F4xx_StdPeriph_Driver/src/stm32f4xx_exti.c ****   * @author  MCD Application Team
   5:libs/STM32F4xx_StdPeriph_Driver/src/stm32f4xx_exti.c ****   * @version V1.0.0RC1
   6:libs/STM32F4xx_StdPeriph_Driver/src/stm32f4xx_exti.c ****   * @date    25-August-2011
   7:libs/STM32F4xx_StdPeriph_Driver/src/stm32f4xx_exti.c ****   * @brief   This file provides firmware functions to manage the following 
   8:libs/STM32F4xx_StdPeriph_Driver/src/stm32f4xx_exti.c ****   *          functionalities of the EXTI peripheral:           
   9:libs/STM32F4xx_StdPeriph_Driver/src/stm32f4xx_exti.c ****   *           - Initialization and Configuration
  10:libs/STM32F4xx_StdPeriph_Driver/src/stm32f4xx_exti.c ****   *           - Interrupts and flags management
  11:libs/STM32F4xx_StdPeriph_Driver/src/stm32f4xx_exti.c ****   *
  12:libs/STM32F4xx_StdPeriph_Driver/src/stm32f4xx_exti.c ****   *  @verbatim  
  13:libs/STM32F4xx_StdPeriph_Driver/src/stm32f4xx_exti.c ****   *  
  14:libs/STM32F4xx_StdPeriph_Driver/src/stm32f4xx_exti.c ****   *          ===================================================================
  15:libs/STM32F4xx_StdPeriph_Driver/src/stm32f4xx_exti.c ****   *                                     EXTI features
  16:libs/STM32F4xx_StdPeriph_Driver/src/stm32f4xx_exti.c ****   *          ===================================================================
  17:libs/STM32F4xx_StdPeriph_Driver/src/stm32f4xx_exti.c ****   *    
  18:libs/STM32F4xx_StdPeriph_Driver/src/stm32f4xx_exti.c ****   *          External interrupt/event lines are mapped as following:
  19:libs/STM32F4xx_StdPeriph_Driver/src/stm32f4xx_exti.c ****   *            1- All available GPIO pins are connected to the 16 external 
  20:libs/STM32F4xx_StdPeriph_Driver/src/stm32f4xx_exti.c ****   *               interrupt/event lines from EXTI0 to EXTI15.
  21:libs/STM32F4xx_StdPeriph_Driver/src/stm32f4xx_exti.c ****   *            2- EXTI line 16 is connected to the PVD Output
  22:libs/STM32F4xx_StdPeriph_Driver/src/stm32f4xx_exti.c ****   *            3- EXTI line 17 is connected to the RTC Alarm event
  23:libs/STM32F4xx_StdPeriph_Driver/src/stm32f4xx_exti.c ****   *            4- EXTI line 18 is connected to the USB OTG FS Wakeup from suspend event            
  24:libs/STM32F4xx_StdPeriph_Driver/src/stm32f4xx_exti.c ****   *            5- EXTI line 19 is connected to the Ethernet Wakeup event
  25:libs/STM32F4xx_StdPeriph_Driver/src/stm32f4xx_exti.c ****   *            6- EXTI line 20 is connected to the USB OTG HS (configured in FS) Wakeup event 
  26:libs/STM32F4xx_StdPeriph_Driver/src/stm32f4xx_exti.c ****   *            7- EXTI line 21 is connected to the RTC Tamper and Time Stamp events                
  27:libs/STM32F4xx_StdPeriph_Driver/src/stm32f4xx_exti.c ****   *            8- EXTI line 22 is connected to the RTC Wakeup event
  28:libs/STM32F4xx_StdPeriph_Driver/src/stm32f4xx_exti.c ****   *        
  29:libs/STM32F4xx_StdPeriph_Driver/src/stm32f4xx_exti.c ****   *          ===================================================================
  30:libs/STM32F4xx_StdPeriph_Driver/src/stm32f4xx_exti.c ****   *                                 How to use this driver
  31:libs/STM32F4xx_StdPeriph_Driver/src/stm32f4xx_exti.c ****   *          ===================================================================  
  32:libs/STM32F4xx_StdPeriph_Driver/src/stm32f4xx_exti.c ****   *              
  33:libs/STM32F4xx_StdPeriph_Driver/src/stm32f4xx_exti.c ****   *          In order to use an I/O pin as an external interrupt source, follow
  34:libs/STM32F4xx_StdPeriph_Driver/src/stm32f4xx_exti.c ****   *          steps below:
  35:libs/STM32F4xx_StdPeriph_Driver/src/stm32f4xx_exti.c ****   *            1- Configure the I/O in input mode using GPIO_Init()
  36:libs/STM32F4xx_StdPeriph_Driver/src/stm32f4xx_exti.c ****   *            2- Select the input source pin for the EXTI line using SYSCFG_EXTILineConfig()
  37:libs/STM32F4xx_StdPeriph_Driver/src/stm32f4xx_exti.c ****   *            3- Select the mode(interrupt, event) and configure the trigger 
  38:libs/STM32F4xx_StdPeriph_Driver/src/stm32f4xx_exti.c ****   *               selection (Rising, falling or both) using EXTI_Init()
  39:libs/STM32F4xx_StdPeriph_Driver/src/stm32f4xx_exti.c ****   *            4- Configure NVIC IRQ channel mapped to the EXTI line using NVIC_Init()
  40:libs/STM32F4xx_StdPeriph_Driver/src/stm32f4xx_exti.c ****   *   
  41:libs/STM32F4xx_StdPeriph_Driver/src/stm32f4xx_exti.c ****   *  @note  SYSCFG APB clock must be enabled to get write access to SYSCFG_EXTICRx
  42:libs/STM32F4xx_StdPeriph_Driver/src/stm32f4xx_exti.c ****   *         registers using RCC_APB2PeriphClockCmd(RCC_APB2Periph_SYSCFG, ENABLE);
  43:libs/STM32F4xx_StdPeriph_Driver/src/stm32f4xx_exti.c ****   *          
  44:libs/STM32F4xx_StdPeriph_Driver/src/stm32f4xx_exti.c ****   *  @endverbatim                  
  45:libs/STM32F4xx_StdPeriph_Driver/src/stm32f4xx_exti.c ****   *
  46:libs/STM32F4xx_StdPeriph_Driver/src/stm32f4xx_exti.c ****   ******************************************************************************
  47:libs/STM32F4xx_StdPeriph_Driver/src/stm32f4xx_exti.c ****   * @attention
  48:libs/STM32F4xx_StdPeriph_Driver/src/stm32f4xx_exti.c ****   *
  49:libs/STM32F4xx_StdPeriph_Driver/src/stm32f4xx_exti.c ****   * THE PRESENT FIRMWARE WHICH IS FOR GUIDANCE ONLY AIMS AT PROVIDING CUSTOMERS
  50:libs/STM32F4xx_StdPeriph_Driver/src/stm32f4xx_exti.c ****   * WITH CODING INFORMATION REGARDING THEIR PRODUCTS IN ORDER FOR THEM TO SAVE
  51:libs/STM32F4xx_StdPeriph_Driver/src/stm32f4xx_exti.c ****   * TIME. AS A RESULT, STMICROELECTRONICS SHALL NOT BE HELD LIABLE FOR ANY
  52:libs/STM32F4xx_StdPeriph_Driver/src/stm32f4xx_exti.c ****   * DIRECT, INDIRECT OR CONSEQUENTIAL DAMAGES WITH RESPECT TO ANY CLAIMS ARISING
  53:libs/STM32F4xx_StdPeriph_Driver/src/stm32f4xx_exti.c ****   * FROM THE CONTENT OF SUCH FIRMWARE AND/OR THE USE MADE BY CUSTOMERS OF THE
  54:libs/STM32F4xx_StdPeriph_Driver/src/stm32f4xx_exti.c ****   * CODING INFORMATION CONTAINED HEREIN IN CONNECTION WITH THEIR PRODUCTS.
  55:libs/STM32F4xx_StdPeriph_Driver/src/stm32f4xx_exti.c ****   *
  56:libs/STM32F4xx_StdPeriph_Driver/src/stm32f4xx_exti.c ****   * <h2><center>&copy; COPYRIGHT 2011 STMicroelectronics</center></h2>
  57:libs/STM32F4xx_StdPeriph_Driver/src/stm32f4xx_exti.c ****   ******************************************************************************
  58:libs/STM32F4xx_StdPeriph_Driver/src/stm32f4xx_exti.c ****   */
  59:libs/STM32F4xx_StdPeriph_Driver/src/stm32f4xx_exti.c **** 
  60:libs/STM32F4xx_StdPeriph_Driver/src/stm32f4xx_exti.c **** /* Includes ------------------------------------------------------------------*/
  61:libs/STM32F4xx_StdPeriph_Driver/src/stm32f4xx_exti.c **** #include "stm32f4xx_exti.h"
  62:libs/STM32F4xx_StdPeriph_Driver/src/stm32f4xx_exti.c **** 
  63:libs/STM32F4xx_StdPeriph_Driver/src/stm32f4xx_exti.c **** /** @addtogroup STM32F4xx_StdPeriph_Driver
  64:libs/STM32F4xx_StdPeriph_Driver/src/stm32f4xx_exti.c ****   * @{
  65:libs/STM32F4xx_StdPeriph_Driver/src/stm32f4xx_exti.c ****   */
  66:libs/STM32F4xx_StdPeriph_Driver/src/stm32f4xx_exti.c **** 
  67:libs/STM32F4xx_StdPeriph_Driver/src/stm32f4xx_exti.c **** /** @defgroup EXTI 
  68:libs/STM32F4xx_StdPeriph_Driver/src/stm32f4xx_exti.c ****   * @brief EXTI driver modules
  69:libs/STM32F4xx_StdPeriph_Driver/src/stm32f4xx_exti.c ****   * @{
  70:libs/STM32F4xx_StdPeriph_Driver/src/stm32f4xx_exti.c ****   */
  71:libs/STM32F4xx_StdPeriph_Driver/src/stm32f4xx_exti.c **** 
  72:libs/STM32F4xx_StdPeriph_Driver/src/stm32f4xx_exti.c **** /* Private typedef -----------------------------------------------------------*/
  73:libs/STM32F4xx_StdPeriph_Driver/src/stm32f4xx_exti.c **** /* Private define ------------------------------------------------------------*/
  74:libs/STM32F4xx_StdPeriph_Driver/src/stm32f4xx_exti.c **** 
  75:libs/STM32F4xx_StdPeriph_Driver/src/stm32f4xx_exti.c **** #define EXTI_LINENONE    ((uint32_t)0x00000)  /* No interrupt selected */
  76:libs/STM32F4xx_StdPeriph_Driver/src/stm32f4xx_exti.c **** 
  77:libs/STM32F4xx_StdPeriph_Driver/src/stm32f4xx_exti.c **** /* Private macro -------------------------------------------------------------*/
  78:libs/STM32F4xx_StdPeriph_Driver/src/stm32f4xx_exti.c **** /* Private variables ---------------------------------------------------------*/
  79:libs/STM32F4xx_StdPeriph_Driver/src/stm32f4xx_exti.c **** /* Private function prototypes -----------------------------------------------*/
  80:libs/STM32F4xx_StdPeriph_Driver/src/stm32f4xx_exti.c **** /* Private functions ---------------------------------------------------------*/
  81:libs/STM32F4xx_StdPeriph_Driver/src/stm32f4xx_exti.c **** 
  82:libs/STM32F4xx_StdPeriph_Driver/src/stm32f4xx_exti.c **** /** @defgroup EXTI_Private_Functions
  83:libs/STM32F4xx_StdPeriph_Driver/src/stm32f4xx_exti.c ****   * @{
  84:libs/STM32F4xx_StdPeriph_Driver/src/stm32f4xx_exti.c ****   */
  85:libs/STM32F4xx_StdPeriph_Driver/src/stm32f4xx_exti.c **** 
  86:libs/STM32F4xx_StdPeriph_Driver/src/stm32f4xx_exti.c **** /** @defgroup EXTI_Group1 Initialization and Configuration functions
  87:libs/STM32F4xx_StdPeriph_Driver/src/stm32f4xx_exti.c ****  *  @brief   Initialization and Configuration functions 
  88:libs/STM32F4xx_StdPeriph_Driver/src/stm32f4xx_exti.c ****  *
  89:libs/STM32F4xx_StdPeriph_Driver/src/stm32f4xx_exti.c **** @verbatim   
  90:libs/STM32F4xx_StdPeriph_Driver/src/stm32f4xx_exti.c ****  ===============================================================================
  91:libs/STM32F4xx_StdPeriph_Driver/src/stm32f4xx_exti.c ****                   Initialization and Configuration functions
  92:libs/STM32F4xx_StdPeriph_Driver/src/stm32f4xx_exti.c ****  ===============================================================================  
  93:libs/STM32F4xx_StdPeriph_Driver/src/stm32f4xx_exti.c **** 
  94:libs/STM32F4xx_StdPeriph_Driver/src/stm32f4xx_exti.c **** @endverbatim
  95:libs/STM32F4xx_StdPeriph_Driver/src/stm32f4xx_exti.c ****   * @{
  96:libs/STM32F4xx_StdPeriph_Driver/src/stm32f4xx_exti.c ****   */
  97:libs/STM32F4xx_StdPeriph_Driver/src/stm32f4xx_exti.c **** 
  98:libs/STM32F4xx_StdPeriph_Driver/src/stm32f4xx_exti.c **** /**
  99:libs/STM32F4xx_StdPeriph_Driver/src/stm32f4xx_exti.c ****   * @brief  Deinitializes the EXTI peripheral registers to their default reset values.
 100:libs/STM32F4xx_StdPeriph_Driver/src/stm32f4xx_exti.c ****   * @param  None
 101:libs/STM32F4xx_StdPeriph_Driver/src/stm32f4xx_exti.c ****   * @retval None
 102:libs/STM32F4xx_StdPeriph_Driver/src/stm32f4xx_exti.c ****   */
 103:libs/STM32F4xx_StdPeriph_Driver/src/stm32f4xx_exti.c **** void EXTI_DeInit(void)
 104:libs/STM32F4xx_StdPeriph_Driver/src/stm32f4xx_exti.c **** {
  28              		.loc 1 104 0
  29              		.cfi_startproc
  30              		@ args = 0, pretend = 0, frame = 0
  31              		@ frame_needed = 1, uses_anonymous_args = 0
  32              		@ link register save eliminated.
  33 0000 80B4     		push	{r7}
  34              	.LCFI0:
  35              		.cfi_def_cfa_offset 4
  36              		.cfi_offset 7, -4
  37 0002 00AF     		add	r7, sp, #0
  38              	.LCFI1:
  39              		.cfi_def_cfa_register 7
 105:libs/STM32F4xx_StdPeriph_Driver/src/stm32f4xx_exti.c ****   EXTI->IMR = 0x00000000;
  40              		.loc 1 105 0
  41 0004 4FF47053 		mov	r3, #15360
  42 0008 C4F20103 		movt	r3, 16385
  43 000c 4FF00002 		mov	r2, #0
  44 0010 1A60     		str	r2, [r3, #0]
 106:libs/STM32F4xx_StdPeriph_Driver/src/stm32f4xx_exti.c ****   EXTI->EMR = 0x00000000;
  45              		.loc 1 106 0
  46 0012 4FF47053 		mov	r3, #15360
  47 0016 C4F20103 		movt	r3, 16385
  48 001a 4FF00002 		mov	r2, #0
  49 001e 5A60     		str	r2, [r3, #4]
 107:libs/STM32F4xx_StdPeriph_Driver/src/stm32f4xx_exti.c ****   EXTI->RTSR = 0x00000000;
  50              		.loc 1 107 0
  51 0020 4FF47053 		mov	r3, #15360
  52 0024 C4F20103 		movt	r3, 16385
  53 0028 4FF00002 		mov	r2, #0
  54 002c 9A60     		str	r2, [r3, #8]
 108:libs/STM32F4xx_StdPeriph_Driver/src/stm32f4xx_exti.c ****   EXTI->FTSR = 0x00000000;
  55              		.loc 1 108 0
  56 002e 4FF47053 		mov	r3, #15360
  57 0032 C4F20103 		movt	r3, 16385
  58 0036 4FF00002 		mov	r2, #0
  59 003a DA60     		str	r2, [r3, #12]
 109:libs/STM32F4xx_StdPeriph_Driver/src/stm32f4xx_exti.c ****   EXTI->PR = 0x007FFFFF;
  60              		.loc 1 109 0
  61 003c 4FF47053 		mov	r3, #15360
  62 0040 C4F20103 		movt	r3, 16385
  63 0044 4FF6FF72 		movw	r2, #65535
  64 0048 C0F27F02 		movt	r2, 127
  65 004c 5A61     		str	r2, [r3, #20]
 110:libs/STM32F4xx_StdPeriph_Driver/src/stm32f4xx_exti.c **** }
  66              		.loc 1 110 0
  67 004e BD46     		mov	sp, r7
  68 0050 80BC     		pop	{r7}
  69 0052 7047     		bx	lr
  70              		.cfi_endproc
  71              	.LFE110:
  73              		.section	.text.EXTI_Init,"ax",%progbits
  74              		.align	2
  75              		.global	EXTI_Init
  76              		.thumb
  77              		.thumb_func
  79              	EXTI_Init:
  80              	.LFB111:
 111:libs/STM32F4xx_StdPeriph_Driver/src/stm32f4xx_exti.c **** 
 112:libs/STM32F4xx_StdPeriph_Driver/src/stm32f4xx_exti.c **** /**
 113:libs/STM32F4xx_StdPeriph_Driver/src/stm32f4xx_exti.c ****   * @brief  Initializes the EXTI peripheral according to the specified
 114:libs/STM32F4xx_StdPeriph_Driver/src/stm32f4xx_exti.c ****   *         parameters in the EXTI_InitStruct.
 115:libs/STM32F4xx_StdPeriph_Driver/src/stm32f4xx_exti.c ****   * @param  EXTI_InitStruct: pointer to a EXTI_InitTypeDef structure
 116:libs/STM32F4xx_StdPeriph_Driver/src/stm32f4xx_exti.c ****   *         that contains the configuration information for the EXTI peripheral.
 117:libs/STM32F4xx_StdPeriph_Driver/src/stm32f4xx_exti.c ****   * @retval None
 118:libs/STM32F4xx_StdPeriph_Driver/src/stm32f4xx_exti.c ****   */
 119:libs/STM32F4xx_StdPeriph_Driver/src/stm32f4xx_exti.c **** void EXTI_Init(EXTI_InitTypeDef* EXTI_InitStruct)
 120:libs/STM32F4xx_StdPeriph_Driver/src/stm32f4xx_exti.c **** {
  81              		.loc 1 120 0
  82              		.cfi_startproc
  83              		@ args = 0, pretend = 0, frame = 16
  84              		@ frame_needed = 1, uses_anonymous_args = 0
  85              		@ link register save eliminated.
  86 0000 80B4     		push	{r7}
  87              	.LCFI2:
  88              		.cfi_def_cfa_offset 4
  89              		.cfi_offset 7, -4
  90 0002 85B0     		sub	sp, sp, #20
  91              	.LCFI3:
  92              		.cfi_def_cfa_offset 24
  93 0004 00AF     		add	r7, sp, #0
  94              	.LCFI4:
  95              		.cfi_def_cfa_register 7
  96 0006 7860     		str	r0, [r7, #4]
 121:libs/STM32F4xx_StdPeriph_Driver/src/stm32f4xx_exti.c ****   uint32_t tmp = 0;
  97              		.loc 1 121 0
  98 0008 4FF00003 		mov	r3, #0
  99 000c FB60     		str	r3, [r7, #12]
 122:libs/STM32F4xx_StdPeriph_Driver/src/stm32f4xx_exti.c **** 
 123:libs/STM32F4xx_StdPeriph_Driver/src/stm32f4xx_exti.c ****   /* Check the parameters */
 124:libs/STM32F4xx_StdPeriph_Driver/src/stm32f4xx_exti.c ****   assert_param(IS_EXTI_MODE(EXTI_InitStruct->EXTI_Mode));
 125:libs/STM32F4xx_StdPeriph_Driver/src/stm32f4xx_exti.c ****   assert_param(IS_EXTI_TRIGGER(EXTI_InitStruct->EXTI_Trigger));
 126:libs/STM32F4xx_StdPeriph_Driver/src/stm32f4xx_exti.c ****   assert_param(IS_EXTI_LINE(EXTI_InitStruct->EXTI_Line));  
 127:libs/STM32F4xx_StdPeriph_Driver/src/stm32f4xx_exti.c ****   assert_param(IS_FUNCTIONAL_STATE(EXTI_InitStruct->EXTI_LineCmd));
 128:libs/STM32F4xx_StdPeriph_Driver/src/stm32f4xx_exti.c **** 
 129:libs/STM32F4xx_StdPeriph_Driver/src/stm32f4xx_exti.c ****   tmp = (uint32_t)EXTI_BASE;
 100              		.loc 1 129 0
 101 000e 4FF47053 		mov	r3, #15360
 102 0012 C4F20103 		movt	r3, 16385
 103 0016 FB60     		str	r3, [r7, #12]
 130:libs/STM32F4xx_StdPeriph_Driver/src/stm32f4xx_exti.c ****      
 131:libs/STM32F4xx_StdPeriph_Driver/src/stm32f4xx_exti.c ****   if (EXTI_InitStruct->EXTI_LineCmd != DISABLE)
 104              		.loc 1 131 0
 105 0018 7B68     		ldr	r3, [r7, #4]
 106 001a 9B79     		ldrb	r3, [r3, #6]	@ zero_extendqisi2
 107 001c 002B     		cmp	r3, #0
 108 001e 78D0     		beq	.L3
 132:libs/STM32F4xx_StdPeriph_Driver/src/stm32f4xx_exti.c ****   {
 133:libs/STM32F4xx_StdPeriph_Driver/src/stm32f4xx_exti.c ****     /* Clear EXTI line configuration */
 134:libs/STM32F4xx_StdPeriph_Driver/src/stm32f4xx_exti.c ****     EXTI->IMR &= ~EXTI_InitStruct->EXTI_Line;
 109              		.loc 1 134 0
 110 0020 4FF47053 		mov	r3, #15360
 111 0024 C4F20103 		movt	r3, 16385
 112 0028 4FF47052 		mov	r2, #15360
 113 002c C4F20102 		movt	r2, 16385
 114 0030 1168     		ldr	r1, [r2, #0]
 115 0032 7A68     		ldr	r2, [r7, #4]
 116 0034 1268     		ldr	r2, [r2, #0]
 117 0036 6FEA0202 		mvn	r2, r2
 118 003a 0A40     		ands	r2, r2, r1
 119 003c 1A60     		str	r2, [r3, #0]
 135:libs/STM32F4xx_StdPeriph_Driver/src/stm32f4xx_exti.c ****     EXTI->EMR &= ~EXTI_InitStruct->EXTI_Line;
 120              		.loc 1 135 0
 121 003e 4FF47053 		mov	r3, #15360
 122 0042 C4F20103 		movt	r3, 16385
 123 0046 4FF47052 		mov	r2, #15360
 124 004a C4F20102 		movt	r2, 16385
 125 004e 5168     		ldr	r1, [r2, #4]
 126 0050 7A68     		ldr	r2, [r7, #4]
 127 0052 1268     		ldr	r2, [r2, #0]
 128 0054 6FEA0202 		mvn	r2, r2
 129 0058 0A40     		ands	r2, r2, r1
 130 005a 5A60     		str	r2, [r3, #4]
 136:libs/STM32F4xx_StdPeriph_Driver/src/stm32f4xx_exti.c ****     
 137:libs/STM32F4xx_StdPeriph_Driver/src/stm32f4xx_exti.c ****     tmp += EXTI_InitStruct->EXTI_Mode;
 131              		.loc 1 137 0
 132 005c 7B68     		ldr	r3, [r7, #4]
 133 005e 1B79     		ldrb	r3, [r3, #4]	@ zero_extendqisi2
 134 0060 FA68     		ldr	r2, [r7, #12]
 135 0062 D318     		adds	r3, r2, r3
 136 0064 FB60     		str	r3, [r7, #12]
 138:libs/STM32F4xx_StdPeriph_Driver/src/stm32f4xx_exti.c **** 
 139:libs/STM32F4xx_StdPeriph_Driver/src/stm32f4xx_exti.c ****     *(__IO uint32_t *) tmp |= EXTI_InitStruct->EXTI_Line;
 137              		.loc 1 139 0
 138 0066 FB68     		ldr	r3, [r7, #12]
 139 0068 FA68     		ldr	r2, [r7, #12]
 140 006a 1168     		ldr	r1, [r2, #0]
 141 006c 7A68     		ldr	r2, [r7, #4]
 142 006e 1268     		ldr	r2, [r2, #0]
 143 0070 0A43     		orrs	r2, r2, r1
 144 0072 1A60     		str	r2, [r3, #0]
 140:libs/STM32F4xx_StdPeriph_Driver/src/stm32f4xx_exti.c **** 
 141:libs/STM32F4xx_StdPeriph_Driver/src/stm32f4xx_exti.c ****     /* Clear Rising Falling edge configuration */
 142:libs/STM32F4xx_StdPeriph_Driver/src/stm32f4xx_exti.c ****     EXTI->RTSR &= ~EXTI_InitStruct->EXTI_Line;
 145              		.loc 1 142 0
 146 0074 4FF47053 		mov	r3, #15360
 147 0078 C4F20103 		movt	r3, 16385
 148 007c 4FF47052 		mov	r2, #15360
 149 0080 C4F20102 		movt	r2, 16385
 150 0084 9168     		ldr	r1, [r2, #8]
 151 0086 7A68     		ldr	r2, [r7, #4]
 152 0088 1268     		ldr	r2, [r2, #0]
 153 008a 6FEA0202 		mvn	r2, r2
 154 008e 0A40     		ands	r2, r2, r1
 155 0090 9A60     		str	r2, [r3, #8]
 143:libs/STM32F4xx_StdPeriph_Driver/src/stm32f4xx_exti.c ****     EXTI->FTSR &= ~EXTI_InitStruct->EXTI_Line;
 156              		.loc 1 143 0
 157 0092 4FF47053 		mov	r3, #15360
 158 0096 C4F20103 		movt	r3, 16385
 159 009a 4FF47052 		mov	r2, #15360
 160 009e C4F20102 		movt	r2, 16385
 161 00a2 D168     		ldr	r1, [r2, #12]
 162 00a4 7A68     		ldr	r2, [r7, #4]
 163 00a6 1268     		ldr	r2, [r2, #0]
 164 00a8 6FEA0202 		mvn	r2, r2
 165 00ac 0A40     		ands	r2, r2, r1
 166 00ae DA60     		str	r2, [r3, #12]
 144:libs/STM32F4xx_StdPeriph_Driver/src/stm32f4xx_exti.c ****     
 145:libs/STM32F4xx_StdPeriph_Driver/src/stm32f4xx_exti.c ****     /* Select the trigger for the selected external interrupts */
 146:libs/STM32F4xx_StdPeriph_Driver/src/stm32f4xx_exti.c ****     if (EXTI_InitStruct->EXTI_Trigger == EXTI_Trigger_Rising_Falling)
 167              		.loc 1 146 0
 168 00b0 7B68     		ldr	r3, [r7, #4]
 169 00b2 5B79     		ldrb	r3, [r3, #5]	@ zero_extendqisi2
 170 00b4 102B     		cmp	r3, #16
 171 00b6 1AD1     		bne	.L4
 147:libs/STM32F4xx_StdPeriph_Driver/src/stm32f4xx_exti.c ****     {
 148:libs/STM32F4xx_StdPeriph_Driver/src/stm32f4xx_exti.c ****       /* Rising Falling edge */
 149:libs/STM32F4xx_StdPeriph_Driver/src/stm32f4xx_exti.c ****       EXTI->RTSR |= EXTI_InitStruct->EXTI_Line;
 172              		.loc 1 149 0
 173 00b8 4FF47053 		mov	r3, #15360
 174 00bc C4F20103 		movt	r3, 16385
 175 00c0 4FF47052 		mov	r2, #15360
 176 00c4 C4F20102 		movt	r2, 16385
 177 00c8 9168     		ldr	r1, [r2, #8]
 178 00ca 7A68     		ldr	r2, [r7, #4]
 179 00cc 1268     		ldr	r2, [r2, #0]
 180 00ce 0A43     		orrs	r2, r2, r1
 181 00d0 9A60     		str	r2, [r3, #8]
 150:libs/STM32F4xx_StdPeriph_Driver/src/stm32f4xx_exti.c ****       EXTI->FTSR |= EXTI_InitStruct->EXTI_Line;
 182              		.loc 1 150 0
 183 00d2 4FF47053 		mov	r3, #15360
 184 00d6 C4F20103 		movt	r3, 16385
 185 00da 4FF47052 		mov	r2, #15360
 186 00de C4F20102 		movt	r2, 16385
 187 00e2 D168     		ldr	r1, [r2, #12]
 188 00e4 7A68     		ldr	r2, [r7, #4]
 189 00e6 1268     		ldr	r2, [r2, #0]
 190 00e8 0A43     		orrs	r2, r2, r1
 191 00ea DA60     		str	r2, [r3, #12]
 192 00ec 1FE0     		b	.L2
 193              	.L4:
 151:libs/STM32F4xx_StdPeriph_Driver/src/stm32f4xx_exti.c ****     }
 152:libs/STM32F4xx_StdPeriph_Driver/src/stm32f4xx_exti.c ****     else
 153:libs/STM32F4xx_StdPeriph_Driver/src/stm32f4xx_exti.c ****     {
 154:libs/STM32F4xx_StdPeriph_Driver/src/stm32f4xx_exti.c ****       tmp = (uint32_t)EXTI_BASE;
 194              		.loc 1 154 0
 195 00ee 4FF47053 		mov	r3, #15360
 196 00f2 C4F20103 		movt	r3, 16385
 197 00f6 FB60     		str	r3, [r7, #12]
 155:libs/STM32F4xx_StdPeriph_Driver/src/stm32f4xx_exti.c ****       tmp += EXTI_InitStruct->EXTI_Trigger;
 198              		.loc 1 155 0
 199 00f8 7B68     		ldr	r3, [r7, #4]
 200 00fa 5B79     		ldrb	r3, [r3, #5]	@ zero_extendqisi2
 201 00fc FA68     		ldr	r2, [r7, #12]
 202 00fe D318     		adds	r3, r2, r3
 203 0100 FB60     		str	r3, [r7, #12]
 156:libs/STM32F4xx_StdPeriph_Driver/src/stm32f4xx_exti.c **** 
 157:libs/STM32F4xx_StdPeriph_Driver/src/stm32f4xx_exti.c ****       *(__IO uint32_t *) tmp |= EXTI_InitStruct->EXTI_Line;
 204              		.loc 1 157 0
 205 0102 FB68     		ldr	r3, [r7, #12]
 206 0104 FA68     		ldr	r2, [r7, #12]
 207 0106 1168     		ldr	r1, [r2, #0]
 208 0108 7A68     		ldr	r2, [r7, #4]
 209 010a 1268     		ldr	r2, [r2, #0]
 210 010c 0A43     		orrs	r2, r2, r1
 211 010e 1A60     		str	r2, [r3, #0]
 212 0110 0DE0     		b	.L2
 213              	.L3:
 158:libs/STM32F4xx_StdPeriph_Driver/src/stm32f4xx_exti.c ****     }
 159:libs/STM32F4xx_StdPeriph_Driver/src/stm32f4xx_exti.c ****   }
 160:libs/STM32F4xx_StdPeriph_Driver/src/stm32f4xx_exti.c ****   else
 161:libs/STM32F4xx_StdPeriph_Driver/src/stm32f4xx_exti.c ****   {
 162:libs/STM32F4xx_StdPeriph_Driver/src/stm32f4xx_exti.c ****     tmp += EXTI_InitStruct->EXTI_Mode;
 214              		.loc 1 162 0
 215 0112 7B68     		ldr	r3, [r7, #4]
 216 0114 1B79     		ldrb	r3, [r3, #4]	@ zero_extendqisi2
 217 0116 FA68     		ldr	r2, [r7, #12]
 218 0118 D318     		adds	r3, r2, r3
 219 011a FB60     		str	r3, [r7, #12]
 163:libs/STM32F4xx_StdPeriph_Driver/src/stm32f4xx_exti.c **** 
 164:libs/STM32F4xx_StdPeriph_Driver/src/stm32f4xx_exti.c ****     /* Disable the selected external lines */
 165:libs/STM32F4xx_StdPeriph_Driver/src/stm32f4xx_exti.c ****     *(__IO uint32_t *) tmp &= ~EXTI_InitStruct->EXTI_Line;
 220              		.loc 1 165 0
 221 011c FB68     		ldr	r3, [r7, #12]
 222 011e FA68     		ldr	r2, [r7, #12]
 223 0120 1168     		ldr	r1, [r2, #0]
 224 0122 7A68     		ldr	r2, [r7, #4]
 225 0124 1268     		ldr	r2, [r2, #0]
 226 0126 6FEA0202 		mvn	r2, r2
 227 012a 0A40     		ands	r2, r2, r1
 228 012c 1A60     		str	r2, [r3, #0]
 229              	.L2:
 166:libs/STM32F4xx_StdPeriph_Driver/src/stm32f4xx_exti.c ****   }
 167:libs/STM32F4xx_StdPeriph_Driver/src/stm32f4xx_exti.c **** }
 230              		.loc 1 167 0
 231 012e 07F11407 		add	r7, r7, #20
 232 0132 BD46     		mov	sp, r7
 233 0134 80BC     		pop	{r7}
 234 0136 7047     		bx	lr
 235              		.cfi_endproc
 236              	.LFE111:
 238              		.section	.text.EXTI_StructInit,"ax",%progbits
 239              		.align	2
 240              		.global	EXTI_StructInit
 241              		.thumb
 242              		.thumb_func
 244              	EXTI_StructInit:
 245              	.LFB112:
 168:libs/STM32F4xx_StdPeriph_Driver/src/stm32f4xx_exti.c **** 
 169:libs/STM32F4xx_StdPeriph_Driver/src/stm32f4xx_exti.c **** /**
 170:libs/STM32F4xx_StdPeriph_Driver/src/stm32f4xx_exti.c ****   * @brief  Fills each EXTI_InitStruct member with its reset value.
 171:libs/STM32F4xx_StdPeriph_Driver/src/stm32f4xx_exti.c ****   * @param  EXTI_InitStruct: pointer to a EXTI_InitTypeDef structure which will
 172:libs/STM32F4xx_StdPeriph_Driver/src/stm32f4xx_exti.c ****   *         be initialized.
 173:libs/STM32F4xx_StdPeriph_Driver/src/stm32f4xx_exti.c ****   * @retval None
 174:libs/STM32F4xx_StdPeriph_Driver/src/stm32f4xx_exti.c ****   */
 175:libs/STM32F4xx_StdPeriph_Driver/src/stm32f4xx_exti.c **** void EXTI_StructInit(EXTI_InitTypeDef* EXTI_InitStruct)
 176:libs/STM32F4xx_StdPeriph_Driver/src/stm32f4xx_exti.c **** {
 246              		.loc 1 176 0
 247              		.cfi_startproc
 248              		@ args = 0, pretend = 0, frame = 8
 249              		@ frame_needed = 1, uses_anonymous_args = 0
 250              		@ link register save eliminated.
 251 0000 80B4     		push	{r7}
 252              	.LCFI5:
 253              		.cfi_def_cfa_offset 4
 254              		.cfi_offset 7, -4
 255 0002 83B0     		sub	sp, sp, #12
 256              	.LCFI6:
 257              		.cfi_def_cfa_offset 16
 258 0004 00AF     		add	r7, sp, #0
 259              	.LCFI7:
 260              		.cfi_def_cfa_register 7
 261 0006 7860     		str	r0, [r7, #4]
 177:libs/STM32F4xx_StdPeriph_Driver/src/stm32f4xx_exti.c ****   EXTI_InitStruct->EXTI_Line = EXTI_LINENONE;
 262              		.loc 1 177 0
 263 0008 7B68     		ldr	r3, [r7, #4]
 264 000a 4FF00002 		mov	r2, #0
 265 000e 1A60     		str	r2, [r3, #0]
 178:libs/STM32F4xx_StdPeriph_Driver/src/stm32f4xx_exti.c ****   EXTI_InitStruct->EXTI_Mode = EXTI_Mode_Interrupt;
 266              		.loc 1 178 0
 267 0010 7B68     		ldr	r3, [r7, #4]
 268 0012 4FF00002 		mov	r2, #0
 269 0016 1A71     		strb	r2, [r3, #4]
 179:libs/STM32F4xx_StdPeriph_Driver/src/stm32f4xx_exti.c ****   EXTI_InitStruct->EXTI_Trigger = EXTI_Trigger_Falling;
 270              		.loc 1 179 0
 271 0018 7B68     		ldr	r3, [r7, #4]
 272 001a 4FF00C02 		mov	r2, #12
 273 001e 5A71     		strb	r2, [r3, #5]
 180:libs/STM32F4xx_StdPeriph_Driver/src/stm32f4xx_exti.c ****   EXTI_InitStruct->EXTI_LineCmd = DISABLE;
 274              		.loc 1 180 0
 275 0020 7B68     		ldr	r3, [r7, #4]
 276 0022 4FF00002 		mov	r2, #0
 277 0026 9A71     		strb	r2, [r3, #6]
 181:libs/STM32F4xx_StdPeriph_Driver/src/stm32f4xx_exti.c **** }
 278              		.loc 1 181 0
 279 0028 07F10C07 		add	r7, r7, #12
 280 002c BD46     		mov	sp, r7
 281 002e 80BC     		pop	{r7}
 282 0030 7047     		bx	lr
 283              		.cfi_endproc
 284              	.LFE112:
 286 0032 00BF     		.section	.text.EXTI_GenerateSWInterrupt,"ax",%progbits
 287              		.align	2
 288              		.global	EXTI_GenerateSWInterrupt
 289              		.thumb
 290              		.thumb_func
 292              	EXTI_GenerateSWInterrupt:
 293              	.LFB113:
 182:libs/STM32F4xx_StdPeriph_Driver/src/stm32f4xx_exti.c **** 
 183:libs/STM32F4xx_StdPeriph_Driver/src/stm32f4xx_exti.c **** /**
 184:libs/STM32F4xx_StdPeriph_Driver/src/stm32f4xx_exti.c ****   * @brief  Generates a Software interrupt on selected EXTI line.
 185:libs/STM32F4xx_StdPeriph_Driver/src/stm32f4xx_exti.c ****   * @param  EXTI_Line: specifies the EXTI line on which the software interrupt
 186:libs/STM32F4xx_StdPeriph_Driver/src/stm32f4xx_exti.c ****   *         will be generated.
 187:libs/STM32F4xx_StdPeriph_Driver/src/stm32f4xx_exti.c ****   *         This parameter can be any combination of EXTI_Linex where x can be (0..22)
 188:libs/STM32F4xx_StdPeriph_Driver/src/stm32f4xx_exti.c ****   * @retval None
 189:libs/STM32F4xx_StdPeriph_Driver/src/stm32f4xx_exti.c ****   */
 190:libs/STM32F4xx_StdPeriph_Driver/src/stm32f4xx_exti.c **** void EXTI_GenerateSWInterrupt(uint32_t EXTI_Line)
 191:libs/STM32F4xx_StdPeriph_Driver/src/stm32f4xx_exti.c **** {
 294              		.loc 1 191 0
 295              		.cfi_startproc
 296              		@ args = 0, pretend = 0, frame = 8
 297              		@ frame_needed = 1, uses_anonymous_args = 0
 298              		@ link register save eliminated.
 299 0000 80B4     		push	{r7}
 300              	.LCFI8:
 301              		.cfi_def_cfa_offset 4
 302              		.cfi_offset 7, -4
 303 0002 83B0     		sub	sp, sp, #12
 304              	.LCFI9:
 305              		.cfi_def_cfa_offset 16
 306 0004 00AF     		add	r7, sp, #0
 307              	.LCFI10:
 308              		.cfi_def_cfa_register 7
 309 0006 7860     		str	r0, [r7, #4]
 192:libs/STM32F4xx_StdPeriph_Driver/src/stm32f4xx_exti.c ****   /* Check the parameters */
 193:libs/STM32F4xx_StdPeriph_Driver/src/stm32f4xx_exti.c ****   assert_param(IS_EXTI_LINE(EXTI_Line));
 194:libs/STM32F4xx_StdPeriph_Driver/src/stm32f4xx_exti.c ****   
 195:libs/STM32F4xx_StdPeriph_Driver/src/stm32f4xx_exti.c ****   EXTI->SWIER |= EXTI_Line;
 310              		.loc 1 195 0
 311 0008 4FF47053 		mov	r3, #15360
 312 000c C4F20103 		movt	r3, 16385
 313 0010 4FF47052 		mov	r2, #15360
 314 0014 C4F20102 		movt	r2, 16385
 315 0018 1169     		ldr	r1, [r2, #16]
 316 001a 7A68     		ldr	r2, [r7, #4]
 317 001c 0A43     		orrs	r2, r2, r1
 318 001e 1A61     		str	r2, [r3, #16]
 196:libs/STM32F4xx_StdPeriph_Driver/src/stm32f4xx_exti.c **** }
 319              		.loc 1 196 0
 320 0020 07F10C07 		add	r7, r7, #12
 321 0024 BD46     		mov	sp, r7
 322 0026 80BC     		pop	{r7}
 323 0028 7047     		bx	lr
 324              		.cfi_endproc
 325              	.LFE113:
 327 002a 00BF     		.section	.text.EXTI_GetFlagStatus,"ax",%progbits
 328              		.align	2
 329              		.global	EXTI_GetFlagStatus
 330              		.thumb
 331              		.thumb_func
 333              	EXTI_GetFlagStatus:
 334              	.LFB114:
 197:libs/STM32F4xx_StdPeriph_Driver/src/stm32f4xx_exti.c **** 
 198:libs/STM32F4xx_StdPeriph_Driver/src/stm32f4xx_exti.c **** /**
 199:libs/STM32F4xx_StdPeriph_Driver/src/stm32f4xx_exti.c ****   * @}
 200:libs/STM32F4xx_StdPeriph_Driver/src/stm32f4xx_exti.c ****   */
 201:libs/STM32F4xx_StdPeriph_Driver/src/stm32f4xx_exti.c **** 
 202:libs/STM32F4xx_StdPeriph_Driver/src/stm32f4xx_exti.c **** /** @defgroup EXTI_Group2 Interrupts and flags management functions
 203:libs/STM32F4xx_StdPeriph_Driver/src/stm32f4xx_exti.c ****  *  @brief   Interrupts and flags management functions 
 204:libs/STM32F4xx_StdPeriph_Driver/src/stm32f4xx_exti.c ****  *
 205:libs/STM32F4xx_StdPeriph_Driver/src/stm32f4xx_exti.c **** @verbatim   
 206:libs/STM32F4xx_StdPeriph_Driver/src/stm32f4xx_exti.c ****  ===============================================================================
 207:libs/STM32F4xx_StdPeriph_Driver/src/stm32f4xx_exti.c ****                   Interrupts and flags management functions
 208:libs/STM32F4xx_StdPeriph_Driver/src/stm32f4xx_exti.c ****  ===============================================================================  
 209:libs/STM32F4xx_StdPeriph_Driver/src/stm32f4xx_exti.c **** 
 210:libs/STM32F4xx_StdPeriph_Driver/src/stm32f4xx_exti.c **** @endverbatim
 211:libs/STM32F4xx_StdPeriph_Driver/src/stm32f4xx_exti.c ****   * @{
 212:libs/STM32F4xx_StdPeriph_Driver/src/stm32f4xx_exti.c ****   */
 213:libs/STM32F4xx_StdPeriph_Driver/src/stm32f4xx_exti.c **** 
 214:libs/STM32F4xx_StdPeriph_Driver/src/stm32f4xx_exti.c **** /**
 215:libs/STM32F4xx_StdPeriph_Driver/src/stm32f4xx_exti.c ****   * @brief  Checks whether the specified EXTI line flag is set or not.
 216:libs/STM32F4xx_StdPeriph_Driver/src/stm32f4xx_exti.c ****   * @param  EXTI_Line: specifies the EXTI line flag to check.
 217:libs/STM32F4xx_StdPeriph_Driver/src/stm32f4xx_exti.c ****   *          This parameter can be EXTI_Linex where x can be(0..22)
 218:libs/STM32F4xx_StdPeriph_Driver/src/stm32f4xx_exti.c ****   * @retval The new state of EXTI_Line (SET or RESET).
 219:libs/STM32F4xx_StdPeriph_Driver/src/stm32f4xx_exti.c ****   */
 220:libs/STM32F4xx_StdPeriph_Driver/src/stm32f4xx_exti.c **** FlagStatus EXTI_GetFlagStatus(uint32_t EXTI_Line)
 221:libs/STM32F4xx_StdPeriph_Driver/src/stm32f4xx_exti.c **** {
 335              		.loc 1 221 0
 336              		.cfi_startproc
 337              		@ args = 0, pretend = 0, frame = 16
 338              		@ frame_needed = 1, uses_anonymous_args = 0
 339              		@ link register save eliminated.
 340 0000 80B4     		push	{r7}
 341              	.LCFI11:
 342              		.cfi_def_cfa_offset 4
 343              		.cfi_offset 7, -4
 344 0002 85B0     		sub	sp, sp, #20
 345              	.LCFI12:
 346              		.cfi_def_cfa_offset 24
 347 0004 00AF     		add	r7, sp, #0
 348              	.LCFI13:
 349              		.cfi_def_cfa_register 7
 350 0006 7860     		str	r0, [r7, #4]
 222:libs/STM32F4xx_StdPeriph_Driver/src/stm32f4xx_exti.c ****   FlagStatus bitstatus = RESET;
 351              		.loc 1 222 0
 352 0008 4FF00003 		mov	r3, #0
 353 000c FB73     		strb	r3, [r7, #15]
 223:libs/STM32F4xx_StdPeriph_Driver/src/stm32f4xx_exti.c ****   /* Check the parameters */
 224:libs/STM32F4xx_StdPeriph_Driver/src/stm32f4xx_exti.c ****   assert_param(IS_GET_EXTI_LINE(EXTI_Line));
 225:libs/STM32F4xx_StdPeriph_Driver/src/stm32f4xx_exti.c ****   
 226:libs/STM32F4xx_StdPeriph_Driver/src/stm32f4xx_exti.c ****   if ((EXTI->PR & EXTI_Line) != (uint32_t)RESET)
 354              		.loc 1 226 0
 355 000e 4FF47053 		mov	r3, #15360
 356 0012 C4F20103 		movt	r3, 16385
 357 0016 5A69     		ldr	r2, [r3, #20]
 358 0018 7B68     		ldr	r3, [r7, #4]
 359 001a 1340     		ands	r3, r3, r2
 360 001c 002B     		cmp	r3, #0
 361 001e 03D0     		beq	.L9
 227:libs/STM32F4xx_StdPeriph_Driver/src/stm32f4xx_exti.c ****   {
 228:libs/STM32F4xx_StdPeriph_Driver/src/stm32f4xx_exti.c ****     bitstatus = SET;
 362              		.loc 1 228 0
 363 0020 4FF00103 		mov	r3, #1
 364 0024 FB73     		strb	r3, [r7, #15]
 365 0026 02E0     		b	.L10
 366              	.L9:
 229:libs/STM32F4xx_StdPeriph_Driver/src/stm32f4xx_exti.c ****   }
 230:libs/STM32F4xx_StdPeriph_Driver/src/stm32f4xx_exti.c ****   else
 231:libs/STM32F4xx_StdPeriph_Driver/src/stm32f4xx_exti.c ****   {
 232:libs/STM32F4xx_StdPeriph_Driver/src/stm32f4xx_exti.c ****     bitstatus = RESET;
 367              		.loc 1 232 0
 368 0028 4FF00003 		mov	r3, #0
 369 002c FB73     		strb	r3, [r7, #15]
 370              	.L10:
 233:libs/STM32F4xx_StdPeriph_Driver/src/stm32f4xx_exti.c ****   }
 234:libs/STM32F4xx_StdPeriph_Driver/src/stm32f4xx_exti.c ****   return bitstatus;
 371              		.loc 1 234 0
 372 002e FB7B     		ldrb	r3, [r7, #15]	@ zero_extendqisi2
 235:libs/STM32F4xx_StdPeriph_Driver/src/stm32f4xx_exti.c **** }
 373              		.loc 1 235 0
 374 0030 1846     		mov	r0, r3
 375 0032 07F11407 		add	r7, r7, #20
 376 0036 BD46     		mov	sp, r7
 377 0038 80BC     		pop	{r7}
 378 003a 7047     		bx	lr
 379              		.cfi_endproc
 380              	.LFE114:
 382              		.section	.text.EXTI_ClearFlag,"ax",%progbits
 383              		.align	2
 384              		.global	EXTI_ClearFlag
 385              		.thumb
 386              		.thumb_func
 388              	EXTI_ClearFlag:
 389              	.LFB115:
 236:libs/STM32F4xx_StdPeriph_Driver/src/stm32f4xx_exti.c **** 
 237:libs/STM32F4xx_StdPeriph_Driver/src/stm32f4xx_exti.c **** /**
 238:libs/STM32F4xx_StdPeriph_Driver/src/stm32f4xx_exti.c ****   * @brief  Clears the EXTI's line pending flags.
 239:libs/STM32F4xx_StdPeriph_Driver/src/stm32f4xx_exti.c ****   * @param  EXTI_Line: specifies the EXTI lines flags to clear.
 240:libs/STM32F4xx_StdPeriph_Driver/src/stm32f4xx_exti.c ****   *          This parameter can be any combination of EXTI_Linex where x can be (0..22)
 241:libs/STM32F4xx_StdPeriph_Driver/src/stm32f4xx_exti.c ****   * @retval None
 242:libs/STM32F4xx_StdPeriph_Driver/src/stm32f4xx_exti.c ****   */
 243:libs/STM32F4xx_StdPeriph_Driver/src/stm32f4xx_exti.c **** void EXTI_ClearFlag(uint32_t EXTI_Line)
 244:libs/STM32F4xx_StdPeriph_Driver/src/stm32f4xx_exti.c **** {
 390              		.loc 1 244 0
 391              		.cfi_startproc
 392              		@ args = 0, pretend = 0, frame = 8
 393              		@ frame_needed = 1, uses_anonymous_args = 0
 394              		@ link register save eliminated.
 395 0000 80B4     		push	{r7}
 396              	.LCFI14:
 397              		.cfi_def_cfa_offset 4
 398              		.cfi_offset 7, -4
 399 0002 83B0     		sub	sp, sp, #12
 400              	.LCFI15:
 401              		.cfi_def_cfa_offset 16
 402 0004 00AF     		add	r7, sp, #0
 403              	.LCFI16:
 404              		.cfi_def_cfa_register 7
 405 0006 7860     		str	r0, [r7, #4]
 245:libs/STM32F4xx_StdPeriph_Driver/src/stm32f4xx_exti.c ****   /* Check the parameters */
 246:libs/STM32F4xx_StdPeriph_Driver/src/stm32f4xx_exti.c ****   assert_param(IS_EXTI_LINE(EXTI_Line));
 247:libs/STM32F4xx_StdPeriph_Driver/src/stm32f4xx_exti.c ****   
 248:libs/STM32F4xx_StdPeriph_Driver/src/stm32f4xx_exti.c ****   EXTI->PR = EXTI_Line;
 406              		.loc 1 248 0
 407 0008 4FF47053 		mov	r3, #15360
 408 000c C4F20103 		movt	r3, 16385
 409 0010 7A68     		ldr	r2, [r7, #4]
 410 0012 5A61     		str	r2, [r3, #20]
 249:libs/STM32F4xx_StdPeriph_Driver/src/stm32f4xx_exti.c **** }
 411              		.loc 1 249 0
 412 0014 07F10C07 		add	r7, r7, #12
 413 0018 BD46     		mov	sp, r7
 414 001a 80BC     		pop	{r7}
 415 001c 7047     		bx	lr
 416              		.cfi_endproc
 417              	.LFE115:
 419 001e 00BF     		.section	.text.EXTI_GetITStatus,"ax",%progbits
 420              		.align	2
 421              		.global	EXTI_GetITStatus
 422              		.thumb
 423              		.thumb_func
 425              	EXTI_GetITStatus:
 426              	.LFB116:
 250:libs/STM32F4xx_StdPeriph_Driver/src/stm32f4xx_exti.c **** 
 251:libs/STM32F4xx_StdPeriph_Driver/src/stm32f4xx_exti.c **** /**
 252:libs/STM32F4xx_StdPeriph_Driver/src/stm32f4xx_exti.c ****   * @brief  Checks whether the specified EXTI line is asserted or not.
 253:libs/STM32F4xx_StdPeriph_Driver/src/stm32f4xx_exti.c ****   * @param  EXTI_Line: specifies the EXTI line to check.
 254:libs/STM32F4xx_StdPeriph_Driver/src/stm32f4xx_exti.c ****   *          This parameter can be EXTI_Linex where x can be(0..22)
 255:libs/STM32F4xx_StdPeriph_Driver/src/stm32f4xx_exti.c ****   * @retval The new state of EXTI_Line (SET or RESET).
 256:libs/STM32F4xx_StdPeriph_Driver/src/stm32f4xx_exti.c ****   */
 257:libs/STM32F4xx_StdPeriph_Driver/src/stm32f4xx_exti.c **** ITStatus EXTI_GetITStatus(uint32_t EXTI_Line)
 258:libs/STM32F4xx_StdPeriph_Driver/src/stm32f4xx_exti.c **** {
 427              		.loc 1 258 0
 428              		.cfi_startproc
 429              		@ args = 0, pretend = 0, frame = 16
 430              		@ frame_needed = 1, uses_anonymous_args = 0
 431              		@ link register save eliminated.
 432 0000 80B4     		push	{r7}
 433              	.LCFI17:
 434              		.cfi_def_cfa_offset 4
 435              		.cfi_offset 7, -4
 436 0002 85B0     		sub	sp, sp, #20
 437              	.LCFI18:
 438              		.cfi_def_cfa_offset 24
 439 0004 00AF     		add	r7, sp, #0
 440              	.LCFI19:
 441              		.cfi_def_cfa_register 7
 442 0006 7860     		str	r0, [r7, #4]
 259:libs/STM32F4xx_StdPeriph_Driver/src/stm32f4xx_exti.c ****   ITStatus bitstatus = RESET;
 443              		.loc 1 259 0
 444 0008 4FF00003 		mov	r3, #0
 445 000c FB73     		strb	r3, [r7, #15]
 260:libs/STM32F4xx_StdPeriph_Driver/src/stm32f4xx_exti.c ****   uint32_t enablestatus = 0;
 446              		.loc 1 260 0
 447 000e 4FF00003 		mov	r3, #0
 448 0012 BB60     		str	r3, [r7, #8]
 261:libs/STM32F4xx_StdPeriph_Driver/src/stm32f4xx_exti.c ****   /* Check the parameters */
 262:libs/STM32F4xx_StdPeriph_Driver/src/stm32f4xx_exti.c ****   assert_param(IS_GET_EXTI_LINE(EXTI_Line));
 263:libs/STM32F4xx_StdPeriph_Driver/src/stm32f4xx_exti.c ****   
 264:libs/STM32F4xx_StdPeriph_Driver/src/stm32f4xx_exti.c ****   enablestatus =  EXTI->IMR & EXTI_Line;
 449              		.loc 1 264 0
 450 0014 4FF47053 		mov	r3, #15360
 451 0018 C4F20103 		movt	r3, 16385
 452 001c 1A68     		ldr	r2, [r3, #0]
 453 001e 7B68     		ldr	r3, [r7, #4]
 454 0020 1340     		ands	r3, r3, r2
 455 0022 BB60     		str	r3, [r7, #8]
 265:libs/STM32F4xx_StdPeriph_Driver/src/stm32f4xx_exti.c ****   if (((EXTI->PR & EXTI_Line) != (uint32_t)RESET) && (enablestatus != (uint32_t)RESET))
 456              		.loc 1 265 0
 457 0024 4FF47053 		mov	r3, #15360
 458 0028 C4F20103 		movt	r3, 16385
 459 002c 5A69     		ldr	r2, [r3, #20]
 460 002e 7B68     		ldr	r3, [r7, #4]
 461 0030 1340     		ands	r3, r3, r2
 462 0032 002B     		cmp	r3, #0
 463 0034 06D0     		beq	.L13
 464              		.loc 1 265 0 is_stmt 0 discriminator 1
 465 0036 BB68     		ldr	r3, [r7, #8]
 466 0038 002B     		cmp	r3, #0
 467 003a 03D0     		beq	.L13
 266:libs/STM32F4xx_StdPeriph_Driver/src/stm32f4xx_exti.c ****   {
 267:libs/STM32F4xx_StdPeriph_Driver/src/stm32f4xx_exti.c ****     bitstatus = SET;
 468              		.loc 1 267 0 is_stmt 1
 469 003c 4FF00103 		mov	r3, #1
 470 0040 FB73     		strb	r3, [r7, #15]
 471 0042 02E0     		b	.L14
 472              	.L13:
 268:libs/STM32F4xx_StdPeriph_Driver/src/stm32f4xx_exti.c ****   }
 269:libs/STM32F4xx_StdPeriph_Driver/src/stm32f4xx_exti.c ****   else
 270:libs/STM32F4xx_StdPeriph_Driver/src/stm32f4xx_exti.c ****   {
 271:libs/STM32F4xx_StdPeriph_Driver/src/stm32f4xx_exti.c ****     bitstatus = RESET;
 473              		.loc 1 271 0
 474 0044 4FF00003 		mov	r3, #0
 475 0048 FB73     		strb	r3, [r7, #15]
 476              	.L14:
 272:libs/STM32F4xx_StdPeriph_Driver/src/stm32f4xx_exti.c ****   }
 273:libs/STM32F4xx_StdPeriph_Driver/src/stm32f4xx_exti.c ****   return bitstatus;
 477              		.loc 1 273 0
 478 004a FB7B     		ldrb	r3, [r7, #15]	@ zero_extendqisi2
 274:libs/STM32F4xx_StdPeriph_Driver/src/stm32f4xx_exti.c **** }
 479              		.loc 1 274 0
 480 004c 1846     		mov	r0, r3
 481 004e 07F11407 		add	r7, r7, #20
 482 0052 BD46     		mov	sp, r7
 483 0054 80BC     		pop	{r7}
 484 0056 7047     		bx	lr
 485              		.cfi_endproc
 486              	.LFE116:
 488              		.section	.text.EXTI_ClearITPendingBit,"ax",%progbits
 489              		.align	2
 490              		.global	EXTI_ClearITPendingBit
 491              		.thumb
 492              		.thumb_func
 494              	EXTI_ClearITPendingBit:
 495              	.LFB117:
 275:libs/STM32F4xx_StdPeriph_Driver/src/stm32f4xx_exti.c **** 
 276:libs/STM32F4xx_StdPeriph_Driver/src/stm32f4xx_exti.c **** /**
 277:libs/STM32F4xx_StdPeriph_Driver/src/stm32f4xx_exti.c ****   * @brief  Clears the EXTI's line pending bits.
 278:libs/STM32F4xx_StdPeriph_Driver/src/stm32f4xx_exti.c ****   * @param  EXTI_Line: specifies the EXTI lines to clear.
 279:libs/STM32F4xx_StdPeriph_Driver/src/stm32f4xx_exti.c ****   *          This parameter can be any combination of EXTI_Linex where x can be (0..22)
 280:libs/STM32F4xx_StdPeriph_Driver/src/stm32f4xx_exti.c ****   * @retval None
 281:libs/STM32F4xx_StdPeriph_Driver/src/stm32f4xx_exti.c ****   */
 282:libs/STM32F4xx_StdPeriph_Driver/src/stm32f4xx_exti.c **** void EXTI_ClearITPendingBit(uint32_t EXTI_Line)
 283:libs/STM32F4xx_StdPeriph_Driver/src/stm32f4xx_exti.c **** {
 496              		.loc 1 283 0
 497              		.cfi_startproc
 498              		@ args = 0, pretend = 0, frame = 8
 499              		@ frame_needed = 1, uses_anonymous_args = 0
 500              		@ link register save eliminated.
 501 0000 80B4     		push	{r7}
 502              	.LCFI20:
 503              		.cfi_def_cfa_offset 4
 504              		.cfi_offset 7, -4
 505 0002 83B0     		sub	sp, sp, #12
 506              	.LCFI21:
 507              		.cfi_def_cfa_offset 16
 508 0004 00AF     		add	r7, sp, #0
 509              	.LCFI22:
 510              		.cfi_def_cfa_register 7
 511 0006 7860     		str	r0, [r7, #4]
 284:libs/STM32F4xx_StdPeriph_Driver/src/stm32f4xx_exti.c ****   /* Check the parameters */
 285:libs/STM32F4xx_StdPeriph_Driver/src/stm32f4xx_exti.c ****   assert_param(IS_EXTI_LINE(EXTI_Line));
 286:libs/STM32F4xx_StdPeriph_Driver/src/stm32f4xx_exti.c ****   
 287:libs/STM32F4xx_StdPeriph_Driver/src/stm32f4xx_exti.c ****   EXTI->PR = EXTI_Line;
 512              		.loc 1 287 0
 513 0008 4FF47053 		mov	r3, #15360
 514 000c C4F20103 		movt	r3, 16385
 515 0010 7A68     		ldr	r2, [r7, #4]
 516 0012 5A61     		str	r2, [r3, #20]
 288:libs/STM32F4xx_StdPeriph_Driver/src/stm32f4xx_exti.c **** }
 517              		.loc 1 288 0
 518 0014 07F10C07 		add	r7, r7, #12
 519 0018 BD46     		mov	sp, r7
 520 001a 80BC     		pop	{r7}
 521 001c 7047     		bx	lr
 522              		.cfi_endproc
 523              	.LFE117:
 525 001e 00BF     		.text
 526              	.Letext0:
 527              		.file 2 "/usr/local/csl/arm-2012.03/bin/../lib/gcc/arm-none-eabi/4.6.3/../../../../arm-none-eabi/i
 528              		.file 3 "libs/Device/STM32F4xx/Include/stm32f4xx.h"
 529              		.file 4 "libs/STM32F4xx_StdPeriph_Driver/inc/stm32f4xx_exti.h"
 530              		.file 5 "libs/CMSIS/Include/core_cm4.h"