   1              		.syntax unified
   2              		.cpu cortex-m4
   3              		.eabi_attribute 27, 3
   4              		.fpu fpv4-sp-d16
   5              		.eabi_attribute 20, 1
   6              		.eabi_attribute 21, 1
   7              		.eabi_attribute 23, 3
   8              		.eabi_attribute 24, 1
   9              		.eabi_attribute 25, 1
  10              		.eabi_attribute 26, 1
  11              		.eabi_attribute 30, 6
  12              		.eabi_attribute 34, 1
  13              		.eabi_attribute 18, 4
  14              		.thumb
  15              		.file	"stm32f4xx_flash.c"
  16              		.text
  17              	.Ltext0:
  18              		.cfi_sections	.debug_frame
  19              		.section	.text.FLASH_SetLatency,"ax",%progbits
  20              		.align	2
  21              		.global	FLASH_SetLatency
  22              		.thumb
  23              		.thumb_func
  25              	FLASH_SetLatency:
  26              	.LFB110:
  27              		.file 1 "libs/STM32F4xx_StdPeriph_Driver/src/stm32f4xx_flash.c"
   1:libs/STM32F4xx_StdPeriph_Driver/src/stm32f4xx_flash.c **** /**
   2:libs/STM32F4xx_StdPeriph_Driver/src/stm32f4xx_flash.c ****   ******************************************************************************
   3:libs/STM32F4xx_StdPeriph_Driver/src/stm32f4xx_flash.c ****   * @file    stm32f4xx_flash.c
   4:libs/STM32F4xx_StdPeriph_Driver/src/stm32f4xx_flash.c ****   * @author  MCD Application Team
   5:libs/STM32F4xx_StdPeriph_Driver/src/stm32f4xx_flash.c ****   * @version V1.0.0RC1
   6:libs/STM32F4xx_StdPeriph_Driver/src/stm32f4xx_flash.c ****   * @date    25-August-2011
   7:libs/STM32F4xx_StdPeriph_Driver/src/stm32f4xx_flash.c ****   * @brief   This file provides firmware functions to manage the following 
   8:libs/STM32F4xx_StdPeriph_Driver/src/stm32f4xx_flash.c ****   *          functionalities of the FLASH peripheral:
   9:libs/STM32F4xx_StdPeriph_Driver/src/stm32f4xx_flash.c ****   *            - FLASH Interface configuration
  10:libs/STM32F4xx_StdPeriph_Driver/src/stm32f4xx_flash.c ****   *            - FLASH Memory Programming
  11:libs/STM32F4xx_StdPeriph_Driver/src/stm32f4xx_flash.c ****   *            - Option Bytes Programming
  12:libs/STM32F4xx_StdPeriph_Driver/src/stm32f4xx_flash.c ****   *            - Interrupts and flags management
  13:libs/STM32F4xx_StdPeriph_Driver/src/stm32f4xx_flash.c ****   *  
  14:libs/STM32F4xx_StdPeriph_Driver/src/stm32f4xx_flash.c ****   *  @verbatim
  15:libs/STM32F4xx_StdPeriph_Driver/src/stm32f4xx_flash.c ****   *  
  16:libs/STM32F4xx_StdPeriph_Driver/src/stm32f4xx_flash.c ****   *          ===================================================================
  17:libs/STM32F4xx_StdPeriph_Driver/src/stm32f4xx_flash.c ****   *                                 How to use this driver
  18:libs/STM32F4xx_StdPeriph_Driver/src/stm32f4xx_flash.c ****   *          ===================================================================
  19:libs/STM32F4xx_StdPeriph_Driver/src/stm32f4xx_flash.c ****   *                           
  20:libs/STM32F4xx_StdPeriph_Driver/src/stm32f4xx_flash.c ****   *          This driver provides functions to configure and program the FLASH 
  21:libs/STM32F4xx_StdPeriph_Driver/src/stm32f4xx_flash.c ****   *          memory of all STM32F4xx devices.
  22:libs/STM32F4xx_StdPeriph_Driver/src/stm32f4xx_flash.c ****   *          These functions are split in 4 groups:
  23:libs/STM32F4xx_StdPeriph_Driver/src/stm32f4xx_flash.c ****   * 
  24:libs/STM32F4xx_StdPeriph_Driver/src/stm32f4xx_flash.c ****   *           1. FLASH Interface configuration functions: this group includes the
  25:libs/STM32F4xx_StdPeriph_Driver/src/stm32f4xx_flash.c ****   *              management of the following features:
  26:libs/STM32F4xx_StdPeriph_Driver/src/stm32f4xx_flash.c ****   *                    - Set the latency
  27:libs/STM32F4xx_StdPeriph_Driver/src/stm32f4xx_flash.c ****   *                    - Enable/Disable the prefetch buffer
  28:libs/STM32F4xx_StdPeriph_Driver/src/stm32f4xx_flash.c ****   *                    - Enable/Disable the Instruction cache and the Data cache
  29:libs/STM32F4xx_StdPeriph_Driver/src/stm32f4xx_flash.c ****   *                    - Reset the Instruction cache and the Data cache
  30:libs/STM32F4xx_StdPeriph_Driver/src/stm32f4xx_flash.c ****   *  
  31:libs/STM32F4xx_StdPeriph_Driver/src/stm32f4xx_flash.c ****   *           2. FLASH Memory Programming functions: this group includes all needed
  32:libs/STM32F4xx_StdPeriph_Driver/src/stm32f4xx_flash.c ****   *              functions to erase and program the main memory:
  33:libs/STM32F4xx_StdPeriph_Driver/src/stm32f4xx_flash.c ****   *                    - Lock and Unlock the FLASH interface
  34:libs/STM32F4xx_StdPeriph_Driver/src/stm32f4xx_flash.c ****   *                    - Erase function: Erase sector, erase all sectors
  35:libs/STM32F4xx_StdPeriph_Driver/src/stm32f4xx_flash.c ****   *                    - Program functions: byte, half word, word and double word
  36:libs/STM32F4xx_StdPeriph_Driver/src/stm32f4xx_flash.c ****   *  
  37:libs/STM32F4xx_StdPeriph_Driver/src/stm32f4xx_flash.c ****   *           3. Option Bytes Programming functions: this group includes all needed
  38:libs/STM32F4xx_StdPeriph_Driver/src/stm32f4xx_flash.c ****   *              functions to manage the Option Bytes:
  39:libs/STM32F4xx_StdPeriph_Driver/src/stm32f4xx_flash.c ****   *                    - Set/Reset the write protection
  40:libs/STM32F4xx_StdPeriph_Driver/src/stm32f4xx_flash.c ****   *                    - Set the Read protection Level
  41:libs/STM32F4xx_StdPeriph_Driver/src/stm32f4xx_flash.c ****   *                    - Set the BOR level
  42:libs/STM32F4xx_StdPeriph_Driver/src/stm32f4xx_flash.c ****   *                    - Program the user Option Bytes
  43:libs/STM32F4xx_StdPeriph_Driver/src/stm32f4xx_flash.c ****   *                    - Launch the Option Bytes loader
  44:libs/STM32F4xx_StdPeriph_Driver/src/stm32f4xx_flash.c ****   *  
  45:libs/STM32F4xx_StdPeriph_Driver/src/stm32f4xx_flash.c ****   *           4. Interrupts and flags management functions: this group 
  46:libs/STM32F4xx_StdPeriph_Driver/src/stm32f4xx_flash.c ****   *              includes all needed functions to:
  47:libs/STM32F4xx_StdPeriph_Driver/src/stm32f4xx_flash.c ****   *                    - Enable/Disable the FLASH interrupt sources
  48:libs/STM32F4xx_StdPeriph_Driver/src/stm32f4xx_flash.c ****   *                    - Get flags status
  49:libs/STM32F4xx_StdPeriph_Driver/src/stm32f4xx_flash.c ****   *                    - Clear flags
  50:libs/STM32F4xx_StdPeriph_Driver/src/stm32f4xx_flash.c ****   *                    - Get FLASH operation status
  51:libs/STM32F4xx_StdPeriph_Driver/src/stm32f4xx_flash.c ****   *                    - Wait for last FLASH operation
  52:libs/STM32F4xx_StdPeriph_Driver/src/stm32f4xx_flash.c ****   * 
  53:libs/STM32F4xx_StdPeriph_Driver/src/stm32f4xx_flash.c ****   *  @endverbatim
  54:libs/STM32F4xx_StdPeriph_Driver/src/stm32f4xx_flash.c ****   *                      
  55:libs/STM32F4xx_StdPeriph_Driver/src/stm32f4xx_flash.c ****   ******************************************************************************
  56:libs/STM32F4xx_StdPeriph_Driver/src/stm32f4xx_flash.c ****   * @attention
  57:libs/STM32F4xx_StdPeriph_Driver/src/stm32f4xx_flash.c ****   *
  58:libs/STM32F4xx_StdPeriph_Driver/src/stm32f4xx_flash.c ****   * THE PRESENT FIRMWARE WHICH IS FOR GUIDANCE ONLY AIMS AT PROVIDING CUSTOMERS
  59:libs/STM32F4xx_StdPeriph_Driver/src/stm32f4xx_flash.c ****   * WITH CODING INFORMATION REGARDING THEIR PRODUCTS IN ORDER FOR THEM TO SAVE
  60:libs/STM32F4xx_StdPeriph_Driver/src/stm32f4xx_flash.c ****   * TIME. AS A RESULT, STMICROELECTRONICS SHALL NOT BE HELD LIABLE FOR ANY
  61:libs/STM32F4xx_StdPeriph_Driver/src/stm32f4xx_flash.c ****   * DIRECT, INDIRECT OR CONSEQUENTIAL DAMAGES WITH RESPECT TO ANY CLAIMS ARISING
  62:libs/STM32F4xx_StdPeriph_Driver/src/stm32f4xx_flash.c ****   * FROM THE CONTENT OF SUCH FIRMWARE AND/OR THE USE MADE BY CUSTOMERS OF THE
  63:libs/STM32F4xx_StdPeriph_Driver/src/stm32f4xx_flash.c ****   * CODING INFORMATION CONTAINED HEREIN IN CONNECTION WITH THEIR PRODUCTS.
  64:libs/STM32F4xx_StdPeriph_Driver/src/stm32f4xx_flash.c ****   *
  65:libs/STM32F4xx_StdPeriph_Driver/src/stm32f4xx_flash.c ****   * <h2><center>&copy; COPYRIGHT 2011 STMicroelectronics</center></h2>
  66:libs/STM32F4xx_StdPeriph_Driver/src/stm32f4xx_flash.c ****   ******************************************************************************
  67:libs/STM32F4xx_StdPeriph_Driver/src/stm32f4xx_flash.c ****   */
  68:libs/STM32F4xx_StdPeriph_Driver/src/stm32f4xx_flash.c **** 
  69:libs/STM32F4xx_StdPeriph_Driver/src/stm32f4xx_flash.c **** /* Includes ------------------------------------------------------------------*/
  70:libs/STM32F4xx_StdPeriph_Driver/src/stm32f4xx_flash.c **** #include "stm32f4xx_flash.h"
  71:libs/STM32F4xx_StdPeriph_Driver/src/stm32f4xx_flash.c **** 
  72:libs/STM32F4xx_StdPeriph_Driver/src/stm32f4xx_flash.c **** /** @addtogroup STM32F4xx_StdPeriph_Driver
  73:libs/STM32F4xx_StdPeriph_Driver/src/stm32f4xx_flash.c ****   * @{
  74:libs/STM32F4xx_StdPeriph_Driver/src/stm32f4xx_flash.c ****   */
  75:libs/STM32F4xx_StdPeriph_Driver/src/stm32f4xx_flash.c **** 
  76:libs/STM32F4xx_StdPeriph_Driver/src/stm32f4xx_flash.c **** /** @defgroup FLASH 
  77:libs/STM32F4xx_StdPeriph_Driver/src/stm32f4xx_flash.c ****   * @brief FLASH driver modules
  78:libs/STM32F4xx_StdPeriph_Driver/src/stm32f4xx_flash.c ****   * @{
  79:libs/STM32F4xx_StdPeriph_Driver/src/stm32f4xx_flash.c ****   */ 
  80:libs/STM32F4xx_StdPeriph_Driver/src/stm32f4xx_flash.c **** 
  81:libs/STM32F4xx_StdPeriph_Driver/src/stm32f4xx_flash.c **** /* Private typedef -----------------------------------------------------------*/
  82:libs/STM32F4xx_StdPeriph_Driver/src/stm32f4xx_flash.c **** /* Private define ------------------------------------------------------------*/ 
  83:libs/STM32F4xx_StdPeriph_Driver/src/stm32f4xx_flash.c **** #define SECTOR_MASK               ((uint32_t)0xFFFFFF07)
  84:libs/STM32F4xx_StdPeriph_Driver/src/stm32f4xx_flash.c **** 
  85:libs/STM32F4xx_StdPeriph_Driver/src/stm32f4xx_flash.c **** /* Private macro -------------------------------------------------------------*/
  86:libs/STM32F4xx_StdPeriph_Driver/src/stm32f4xx_flash.c **** /* Private variables ---------------------------------------------------------*/
  87:libs/STM32F4xx_StdPeriph_Driver/src/stm32f4xx_flash.c **** /* Private function prototypes -----------------------------------------------*/
  88:libs/STM32F4xx_StdPeriph_Driver/src/stm32f4xx_flash.c **** /* Private functions ---------------------------------------------------------*/
  89:libs/STM32F4xx_StdPeriph_Driver/src/stm32f4xx_flash.c **** 
  90:libs/STM32F4xx_StdPeriph_Driver/src/stm32f4xx_flash.c **** /** @defgroup FLASH_Private_Functions
  91:libs/STM32F4xx_StdPeriph_Driver/src/stm32f4xx_flash.c ****   * @{
  92:libs/STM32F4xx_StdPeriph_Driver/src/stm32f4xx_flash.c ****   */ 
  93:libs/STM32F4xx_StdPeriph_Driver/src/stm32f4xx_flash.c **** 
  94:libs/STM32F4xx_StdPeriph_Driver/src/stm32f4xx_flash.c **** /** @defgroup FLASH_Group1 FLASH Interface configuration functions
  95:libs/STM32F4xx_StdPeriph_Driver/src/stm32f4xx_flash.c ****   *  @brief   FLASH Interface configuration functions 
  96:libs/STM32F4xx_StdPeriph_Driver/src/stm32f4xx_flash.c ****  *
  97:libs/STM32F4xx_StdPeriph_Driver/src/stm32f4xx_flash.c **** 
  98:libs/STM32F4xx_StdPeriph_Driver/src/stm32f4xx_flash.c **** @verbatim   
  99:libs/STM32F4xx_StdPeriph_Driver/src/stm32f4xx_flash.c ****  ===============================================================================
 100:libs/STM32F4xx_StdPeriph_Driver/src/stm32f4xx_flash.c ****                        FLASH Interface configuration functions
 101:libs/STM32F4xx_StdPeriph_Driver/src/stm32f4xx_flash.c ****  ===============================================================================
 102:libs/STM32F4xx_StdPeriph_Driver/src/stm32f4xx_flash.c **** 
 103:libs/STM32F4xx_StdPeriph_Driver/src/stm32f4xx_flash.c ****    This group includes the following functions:
 104:libs/STM32F4xx_StdPeriph_Driver/src/stm32f4xx_flash.c ****     - void FLASH_SetLatency(uint32_t FLASH_Latency)
 105:libs/STM32F4xx_StdPeriph_Driver/src/stm32f4xx_flash.c ****        To correctly read data from FLASH memory, the number of wait states (LATENCY) 
 106:libs/STM32F4xx_StdPeriph_Driver/src/stm32f4xx_flash.c ****        must be correctly programmed according to the frequency of the CPU clock 
 107:libs/STM32F4xx_StdPeriph_Driver/src/stm32f4xx_flash.c ****       (HCLK) and the supply voltage of the device.
 108:libs/STM32F4xx_StdPeriph_Driver/src/stm32f4xx_flash.c ****  +-------------------------------------------------------------------------------------+     
 109:libs/STM32F4xx_StdPeriph_Driver/src/stm32f4xx_flash.c ****  | Latency       |                HCLK clock frequency (MHz)                           |
 110:libs/STM32F4xx_StdPeriph_Driver/src/stm32f4xx_flash.c ****  |               |---------------------------------------------------------------------|     
 111:libs/STM32F4xx_StdPeriph_Driver/src/stm32f4xx_flash.c ****  |               | voltage range  | voltage range  | voltage range   | voltage range   |
 112:libs/STM32F4xx_StdPeriph_Driver/src/stm32f4xx_flash.c ****  |               | 2.7 V - 3.6 V  | 2.4 V - 2.7 V  | 2.1 V - 2.4 V   | 1.8 V - 2.1 V   |
 113:libs/STM32F4xx_StdPeriph_Driver/src/stm32f4xx_flash.c ****  |---------------|----------------|----------------|-----------------|-----------------|           
 114:libs/STM32F4xx_StdPeriph_Driver/src/stm32f4xx_flash.c ****  |0WS(1CPU cycle)|0 < HCLK <= 30  |0 < HCLK <= 24  |0 < HCLK <= 18   |0 < HCLK <= 16   |
 115:libs/STM32F4xx_StdPeriph_Driver/src/stm32f4xx_flash.c ****  |---------------|----------------|----------------|-----------------|-----------------|   
 116:libs/STM32F4xx_StdPeriph_Driver/src/stm32f4xx_flash.c ****  |1WS(2CPU cycle)|30 < HCLK <= 60 |24 < HCLK <= 48 |18 < HCLK <= 36  |16 < HCLK <= 32  | 
 117:libs/STM32F4xx_StdPeriph_Driver/src/stm32f4xx_flash.c ****  |---------------|----------------|----------------|-----------------|-----------------|   
 118:libs/STM32F4xx_StdPeriph_Driver/src/stm32f4xx_flash.c ****  |2WS(3CPU cycle)|60 < HCLK <= 90 |48 < HCLK <= 72 |36 < HCLK <= 54  |32 < HCLK <= 48  |
 119:libs/STM32F4xx_StdPeriph_Driver/src/stm32f4xx_flash.c ****  |---------------|----------------|----------------|-----------------|-----------------| 
 120:libs/STM32F4xx_StdPeriph_Driver/src/stm32f4xx_flash.c ****  |3WS(4CPU cycle)|90 < HCLK <= 120|72 < HCLK <= 96 |54 < HCLK <= 72  |48 < HCLK <= 64  |
 121:libs/STM32F4xx_StdPeriph_Driver/src/stm32f4xx_flash.c ****  |---------------|----------------|----------------|-----------------|-----------------| 
 122:libs/STM32F4xx_StdPeriph_Driver/src/stm32f4xx_flash.c ****  |4WS(5CPU cycle)|      NA        |96 < HCLK <= 120|72 < HCLK <= 90  |64 < HCLK <= 80  |
 123:libs/STM32F4xx_StdPeriph_Driver/src/stm32f4xx_flash.c ****  |---------------|----------------|----------------|-----------------|-----------------| 
 124:libs/STM32F4xx_StdPeriph_Driver/src/stm32f4xx_flash.c ****  |5WS(6CPU cycle)|      NA        |      NA        |90 < HCLK <= 108 |80 < HCLK <= 96  | 
 125:libs/STM32F4xx_StdPeriph_Driver/src/stm32f4xx_flash.c ****  |---------------|----------------|----------------|-----------------|-----------------| 
 126:libs/STM32F4xx_StdPeriph_Driver/src/stm32f4xx_flash.c ****  |6WS(7CPU cycle)|      NA        |      NA        |108 < HCLK <= 120|96 < HCLK <= 112 | 
 127:libs/STM32F4xx_StdPeriph_Driver/src/stm32f4xx_flash.c ****  |---------------|----------------|----------------|-----------------|-----------------| 
 128:libs/STM32F4xx_StdPeriph_Driver/src/stm32f4xx_flash.c ****  |7WS(8CPU cycle)|      NA        |      NA        |     NA          |112 < HCLK <= 120| 
 129:libs/STM32F4xx_StdPeriph_Driver/src/stm32f4xx_flash.c ****  |***************|****************|****************|*****************|*****************|***********
 130:libs/STM32F4xx_StdPeriph_Driver/src/stm32f4xx_flash.c ****  |               | voltage range  | voltage range  | voltage range   | voltage range   | voltage ra
 131:libs/STM32F4xx_StdPeriph_Driver/src/stm32f4xx_flash.c ****  |               | 2.7 V - 3.6 V  | 2.4 V - 2.7 V  | 2.1 V - 2.4 V   | 1.8 V - 2.1 V   | with Exter
 132:libs/STM32F4xx_StdPeriph_Driver/src/stm32f4xx_flash.c ****  |---------------|----------------|----------------|-----------------|-----------------|-----------
 133:libs/STM32F4xx_StdPeriph_Driver/src/stm32f4xx_flash.c ****  |Max Parallelism|      x32       |               x16                |       x8        |          x
 134:libs/STM32F4xx_StdPeriph_Driver/src/stm32f4xx_flash.c ****  |---------------|----------------|----------------|-----------------|-----------------|-----------
 135:libs/STM32F4xx_StdPeriph_Driver/src/stm32f4xx_flash.c ****  |PSIZE[1:0]     |      10        |               01                 |       00        |           
 136:libs/STM32F4xx_StdPeriph_Driver/src/stm32f4xx_flash.c ****  +-------------------------------------------------------------------------------------------------
 137:libs/STM32F4xx_StdPeriph_Driver/src/stm32f4xx_flash.c ****     
 138:libs/STM32F4xx_StdPeriph_Driver/src/stm32f4xx_flash.c ****     - void FLASH_PrefetchBufferCmd(FunctionalState NewState)
 139:libs/STM32F4xx_StdPeriph_Driver/src/stm32f4xx_flash.c ****     - void FLASH_InstructionCacheCmd(FunctionalState NewState)
 140:libs/STM32F4xx_StdPeriph_Driver/src/stm32f4xx_flash.c ****     - void FLASH_DataCacheCmd(FunctionalState NewState)
 141:libs/STM32F4xx_StdPeriph_Driver/src/stm32f4xx_flash.c ****     - void FLASH_InstructionCacheReset(void)
 142:libs/STM32F4xx_StdPeriph_Driver/src/stm32f4xx_flash.c ****     - void FLASH_DataCacheReset(void)
 143:libs/STM32F4xx_StdPeriph_Driver/src/stm32f4xx_flash.c ****    
 144:libs/STM32F4xx_StdPeriph_Driver/src/stm32f4xx_flash.c ****    The unlock sequence is not needed for these functions.
 145:libs/STM32F4xx_StdPeriph_Driver/src/stm32f4xx_flash.c ****  
 146:libs/STM32F4xx_StdPeriph_Driver/src/stm32f4xx_flash.c **** @endverbatim
 147:libs/STM32F4xx_StdPeriph_Driver/src/stm32f4xx_flash.c ****   * @{
 148:libs/STM32F4xx_StdPeriph_Driver/src/stm32f4xx_flash.c ****   */
 149:libs/STM32F4xx_StdPeriph_Driver/src/stm32f4xx_flash.c ****  
 150:libs/STM32F4xx_StdPeriph_Driver/src/stm32f4xx_flash.c **** /**
 151:libs/STM32F4xx_StdPeriph_Driver/src/stm32f4xx_flash.c ****   * @brief  Sets the code latency value.
 152:libs/STM32F4xx_StdPeriph_Driver/src/stm32f4xx_flash.c ****   * @param  FLASH_Latency: specifies the FLASH Latency value.
 153:libs/STM32F4xx_StdPeriph_Driver/src/stm32f4xx_flash.c ****   *          This parameter can be one of the following values:
 154:libs/STM32F4xx_StdPeriph_Driver/src/stm32f4xx_flash.c ****   *            @arg FLASH_Latency_0: FLASH Zero Latency cycle
 155:libs/STM32F4xx_StdPeriph_Driver/src/stm32f4xx_flash.c ****   *            @arg FLASH_Latency_1: FLASH One Latency cycle
 156:libs/STM32F4xx_StdPeriph_Driver/src/stm32f4xx_flash.c ****   *            @arg FLASH_Latency_2: FLASH Two Latency cycles
 157:libs/STM32F4xx_StdPeriph_Driver/src/stm32f4xx_flash.c ****   *            @arg FLASH_Latency_3: FLASH Three Latency cycles
 158:libs/STM32F4xx_StdPeriph_Driver/src/stm32f4xx_flash.c ****   *            @arg FLASH_Latency_4: FLASH Four Latency cycles 
 159:libs/STM32F4xx_StdPeriph_Driver/src/stm32f4xx_flash.c ****   *            @arg FLASH_Latency_5: FLASH Five Latency cycles 
 160:libs/STM32F4xx_StdPeriph_Driver/src/stm32f4xx_flash.c ****   *            @arg FLASH_Latency_6: FLASH Six Latency cycles
 161:libs/STM32F4xx_StdPeriph_Driver/src/stm32f4xx_flash.c ****   *            @arg FLASH_Latency_7: FLASH Seven Latency cycles      
 162:libs/STM32F4xx_StdPeriph_Driver/src/stm32f4xx_flash.c ****   * @retval None
 163:libs/STM32F4xx_StdPeriph_Driver/src/stm32f4xx_flash.c ****   */
 164:libs/STM32F4xx_StdPeriph_Driver/src/stm32f4xx_flash.c **** void FLASH_SetLatency(uint32_t FLASH_Latency)
 165:libs/STM32F4xx_StdPeriph_Driver/src/stm32f4xx_flash.c **** {
  28              		.loc 1 165 0
  29              		.cfi_startproc
  30              		@ args = 0, pretend = 0, frame = 8
  31              		@ frame_needed = 1, uses_anonymous_args = 0
  32              		@ link register save eliminated.
  33 0000 80B4     		push	{r7}
  34              	.LCFI0:
  35              		.cfi_def_cfa_offset 4
  36              		.cfi_offset 7, -4
  37 0002 83B0     		sub	sp, sp, #12
  38              	.LCFI1:
  39              		.cfi_def_cfa_offset 16
  40 0004 00AF     		add	r7, sp, #0
  41              	.LCFI2:
  42              		.cfi_def_cfa_register 7
  43 0006 7860     		str	r0, [r7, #4]
 166:libs/STM32F4xx_StdPeriph_Driver/src/stm32f4xx_flash.c ****   /* Check the parameters */
 167:libs/STM32F4xx_StdPeriph_Driver/src/stm32f4xx_flash.c ****   assert_param(IS_FLASH_LATENCY(FLASH_Latency));
 168:libs/STM32F4xx_StdPeriph_Driver/src/stm32f4xx_flash.c ****   
 169:libs/STM32F4xx_StdPeriph_Driver/src/stm32f4xx_flash.c ****   /* Perform Byte access to FLASH_ACR[8:0] to set the Latency value */
 170:libs/STM32F4xx_StdPeriph_Driver/src/stm32f4xx_flash.c ****   *(__IO uint8_t *)ACR_BYTE0_ADDRESS = (uint8_t)FLASH_Latency;
  44              		.loc 1 170 0
  45 0008 4FF47053 		mov	r3, #15360
  46 000c C4F20203 		movt	r3, 16386
  47 0010 7A68     		ldr	r2, [r7, #4]
  48 0012 D2B2     		uxtb	r2, r2
  49 0014 1A70     		strb	r2, [r3, #0]
 171:libs/STM32F4xx_StdPeriph_Driver/src/stm32f4xx_flash.c **** }
  50              		.loc 1 171 0
  51 0016 07F10C07 		add	r7, r7, #12
  52 001a BD46     		mov	sp, r7
  53 001c 80BC     		pop	{r7}
  54 001e 7047     		bx	lr
  55              		.cfi_endproc
  56              	.LFE110:
  58              		.section	.text.FLASH_PrefetchBufferCmd,"ax",%progbits
  59              		.align	2
  60              		.global	FLASH_PrefetchBufferCmd
  61              		.thumb
  62              		.thumb_func
  64              	FLASH_PrefetchBufferCmd:
  65              	.LFB111:
 172:libs/STM32F4xx_StdPeriph_Driver/src/stm32f4xx_flash.c **** 
 173:libs/STM32F4xx_StdPeriph_Driver/src/stm32f4xx_flash.c **** /**
 174:libs/STM32F4xx_StdPeriph_Driver/src/stm32f4xx_flash.c ****   * @brief  Enables or disables the Prefetch Buffer.
 175:libs/STM32F4xx_StdPeriph_Driver/src/stm32f4xx_flash.c ****   * @param  NewState: new state of the Prefetch Buffer.
 176:libs/STM32F4xx_StdPeriph_Driver/src/stm32f4xx_flash.c ****   *          This parameter  can be: ENABLE or DISABLE.
 177:libs/STM32F4xx_StdPeriph_Driver/src/stm32f4xx_flash.c ****   * @retval None
 178:libs/STM32F4xx_StdPeriph_Driver/src/stm32f4xx_flash.c ****   */
 179:libs/STM32F4xx_StdPeriph_Driver/src/stm32f4xx_flash.c **** void FLASH_PrefetchBufferCmd(FunctionalState NewState)
 180:libs/STM32F4xx_StdPeriph_Driver/src/stm32f4xx_flash.c **** {
  66              		.loc 1 180 0
  67              		.cfi_startproc
  68              		@ args = 0, pretend = 0, frame = 8
  69              		@ frame_needed = 1, uses_anonymous_args = 0
  70              		@ link register save eliminated.
  71 0000 80B4     		push	{r7}
  72              	.LCFI3:
  73              		.cfi_def_cfa_offset 4
  74              		.cfi_offset 7, -4
  75 0002 83B0     		sub	sp, sp, #12
  76              	.LCFI4:
  77              		.cfi_def_cfa_offset 16
  78 0004 00AF     		add	r7, sp, #0
  79              	.LCFI5:
  80              		.cfi_def_cfa_register 7
  81 0006 0346     		mov	r3, r0
  82 0008 FB71     		strb	r3, [r7, #7]
 181:libs/STM32F4xx_StdPeriph_Driver/src/stm32f4xx_flash.c ****   /* Check the parameters */
 182:libs/STM32F4xx_StdPeriph_Driver/src/stm32f4xx_flash.c ****   assert_param(IS_FUNCTIONAL_STATE(NewState));
 183:libs/STM32F4xx_StdPeriph_Driver/src/stm32f4xx_flash.c ****   
 184:libs/STM32F4xx_StdPeriph_Driver/src/stm32f4xx_flash.c ****   /* Enable or disable the Prefetch Buffer */
 185:libs/STM32F4xx_StdPeriph_Driver/src/stm32f4xx_flash.c ****   if(NewState != DISABLE)
  83              		.loc 1 185 0
  84 000a FB79     		ldrb	r3, [r7, #7]	@ zero_extendqisi2
  85 000c 002B     		cmp	r3, #0
  86 000e 0CD0     		beq	.L3
 186:libs/STM32F4xx_StdPeriph_Driver/src/stm32f4xx_flash.c ****   {
 187:libs/STM32F4xx_StdPeriph_Driver/src/stm32f4xx_flash.c ****     FLASH->ACR |= FLASH_ACR_PRFTEN;
  87              		.loc 1 187 0
  88 0010 4FF47053 		mov	r3, #15360
  89 0014 C4F20203 		movt	r3, 16386
  90 0018 4FF47052 		mov	r2, #15360
  91 001c C4F20202 		movt	r2, 16386
  92 0020 1268     		ldr	r2, [r2, #0]
  93 0022 42F48072 		orr	r2, r2, #256
  94 0026 1A60     		str	r2, [r3, #0]
  95 0028 0BE0     		b	.L2
  96              	.L3:
 188:libs/STM32F4xx_StdPeriph_Driver/src/stm32f4xx_flash.c ****   }
 189:libs/STM32F4xx_StdPeriph_Driver/src/stm32f4xx_flash.c ****   else
 190:libs/STM32F4xx_StdPeriph_Driver/src/stm32f4xx_flash.c ****   {
 191:libs/STM32F4xx_StdPeriph_Driver/src/stm32f4xx_flash.c ****     FLASH->ACR &= (~FLASH_ACR_PRFTEN);
  97              		.loc 1 191 0
  98 002a 4FF47053 		mov	r3, #15360
  99 002e C4F20203 		movt	r3, 16386
 100 0032 4FF47052 		mov	r2, #15360
 101 0036 C4F20202 		movt	r2, 16386
 102 003a 1268     		ldr	r2, [r2, #0]
 103 003c 22F48072 		bic	r2, r2, #256
 104 0040 1A60     		str	r2, [r3, #0]
 105              	.L2:
 192:libs/STM32F4xx_StdPeriph_Driver/src/stm32f4xx_flash.c ****   }
 193:libs/STM32F4xx_StdPeriph_Driver/src/stm32f4xx_flash.c **** }
 106              		.loc 1 193 0
 107 0042 07F10C07 		add	r7, r7, #12
 108 0046 BD46     		mov	sp, r7
 109 0048 80BC     		pop	{r7}
 110 004a 7047     		bx	lr
 111              		.cfi_endproc
 112              	.LFE111:
 114              		.section	.text.FLASH_InstructionCacheCmd,"ax",%progbits
 115              		.align	2
 116              		.global	FLASH_InstructionCacheCmd
 117              		.thumb
 118              		.thumb_func
 120              	FLASH_InstructionCacheCmd:
 121              	.LFB112:
 194:libs/STM32F4xx_StdPeriph_Driver/src/stm32f4xx_flash.c **** 
 195:libs/STM32F4xx_StdPeriph_Driver/src/stm32f4xx_flash.c **** /**
 196:libs/STM32F4xx_StdPeriph_Driver/src/stm32f4xx_flash.c ****   * @brief  Enables or disables the Instruction Cache feature.
 197:libs/STM32F4xx_StdPeriph_Driver/src/stm32f4xx_flash.c ****   * @param  NewState: new state of the Instruction Cache.
 198:libs/STM32F4xx_StdPeriph_Driver/src/stm32f4xx_flash.c ****   *          This parameter  can be: ENABLE or DISABLE.
 199:libs/STM32F4xx_StdPeriph_Driver/src/stm32f4xx_flash.c ****   * @retval None
 200:libs/STM32F4xx_StdPeriph_Driver/src/stm32f4xx_flash.c ****   */
 201:libs/STM32F4xx_StdPeriph_Driver/src/stm32f4xx_flash.c **** void FLASH_InstructionCacheCmd(FunctionalState NewState)
 202:libs/STM32F4xx_StdPeriph_Driver/src/stm32f4xx_flash.c **** {
 122              		.loc 1 202 0
 123              		.cfi_startproc
 124              		@ args = 0, pretend = 0, frame = 8
 125              		@ frame_needed = 1, uses_anonymous_args = 0
 126              		@ link register save eliminated.
 127 0000 80B4     		push	{r7}
 128              	.LCFI6:
 129              		.cfi_def_cfa_offset 4
 130              		.cfi_offset 7, -4
 131 0002 83B0     		sub	sp, sp, #12
 132              	.LCFI7:
 133              		.cfi_def_cfa_offset 16
 134 0004 00AF     		add	r7, sp, #0
 135              	.LCFI8:
 136              		.cfi_def_cfa_register 7
 137 0006 0346     		mov	r3, r0
 138 0008 FB71     		strb	r3, [r7, #7]
 203:libs/STM32F4xx_StdPeriph_Driver/src/stm32f4xx_flash.c ****   /* Check the parameters */
 204:libs/STM32F4xx_StdPeriph_Driver/src/stm32f4xx_flash.c ****   assert_param(IS_FUNCTIONAL_STATE(NewState));
 205:libs/STM32F4xx_StdPeriph_Driver/src/stm32f4xx_flash.c ****   
 206:libs/STM32F4xx_StdPeriph_Driver/src/stm32f4xx_flash.c ****   if(NewState != DISABLE)
 139              		.loc 1 206 0
 140 000a FB79     		ldrb	r3, [r7, #7]	@ zero_extendqisi2
 141 000c 002B     		cmp	r3, #0
 142 000e 0CD0     		beq	.L6
 207:libs/STM32F4xx_StdPeriph_Driver/src/stm32f4xx_flash.c ****   {
 208:libs/STM32F4xx_StdPeriph_Driver/src/stm32f4xx_flash.c ****     FLASH->ACR |= FLASH_ACR_ICEN;
 143              		.loc 1 208 0
 144 0010 4FF47053 		mov	r3, #15360
 145 0014 C4F20203 		movt	r3, 16386
 146 0018 4FF47052 		mov	r2, #15360
 147 001c C4F20202 		movt	r2, 16386
 148 0020 1268     		ldr	r2, [r2, #0]
 149 0022 42F40072 		orr	r2, r2, #512
 150 0026 1A60     		str	r2, [r3, #0]
 151 0028 0BE0     		b	.L5
 152              	.L6:
 209:libs/STM32F4xx_StdPeriph_Driver/src/stm32f4xx_flash.c ****   }
 210:libs/STM32F4xx_StdPeriph_Driver/src/stm32f4xx_flash.c ****   else
 211:libs/STM32F4xx_StdPeriph_Driver/src/stm32f4xx_flash.c ****   {
 212:libs/STM32F4xx_StdPeriph_Driver/src/stm32f4xx_flash.c ****     FLASH->ACR &= (~FLASH_ACR_ICEN);
 153              		.loc 1 212 0
 154 002a 4FF47053 		mov	r3, #15360
 155 002e C4F20203 		movt	r3, 16386
 156 0032 4FF47052 		mov	r2, #15360
 157 0036 C4F20202 		movt	r2, 16386
 158 003a 1268     		ldr	r2, [r2, #0]
 159 003c 22F40072 		bic	r2, r2, #512
 160 0040 1A60     		str	r2, [r3, #0]
 161              	.L5:
 213:libs/STM32F4xx_StdPeriph_Driver/src/stm32f4xx_flash.c ****   }
 214:libs/STM32F4xx_StdPeriph_Driver/src/stm32f4xx_flash.c **** }
 162              		.loc 1 214 0
 163 0042 07F10C07 		add	r7, r7, #12
 164 0046 BD46     		mov	sp, r7
 165 0048 80BC     		pop	{r7}
 166 004a 7047     		bx	lr
 167              		.cfi_endproc
 168              	.LFE112:
 170              		.section	.text.FLASH_DataCacheCmd,"ax",%progbits
 171              		.align	2
 172              		.global	FLASH_DataCacheCmd
 173              		.thumb
 174              		.thumb_func
 176              	FLASH_DataCacheCmd:
 177              	.LFB113:
 215:libs/STM32F4xx_StdPeriph_Driver/src/stm32f4xx_flash.c **** 
 216:libs/STM32F4xx_StdPeriph_Driver/src/stm32f4xx_flash.c **** /**
 217:libs/STM32F4xx_StdPeriph_Driver/src/stm32f4xx_flash.c ****   * @brief  Enables or disables the Data Cache feature.
 218:libs/STM32F4xx_StdPeriph_Driver/src/stm32f4xx_flash.c ****   * @param  NewState: new state of the Data Cache.
 219:libs/STM32F4xx_StdPeriph_Driver/src/stm32f4xx_flash.c ****   *          This parameter  can be: ENABLE or DISABLE.
 220:libs/STM32F4xx_StdPeriph_Driver/src/stm32f4xx_flash.c ****   * @retval None
 221:libs/STM32F4xx_StdPeriph_Driver/src/stm32f4xx_flash.c ****   */
 222:libs/STM32F4xx_StdPeriph_Driver/src/stm32f4xx_flash.c **** void FLASH_DataCacheCmd(FunctionalState NewState)
 223:libs/STM32F4xx_StdPeriph_Driver/src/stm32f4xx_flash.c **** {
 178              		.loc 1 223 0
 179              		.cfi_startproc
 180              		@ args = 0, pretend = 0, frame = 8
 181              		@ frame_needed = 1, uses_anonymous_args = 0
 182              		@ link register save eliminated.
 183 0000 80B4     		push	{r7}
 184              	.LCFI9:
 185              		.cfi_def_cfa_offset 4
 186              		.cfi_offset 7, -4
 187 0002 83B0     		sub	sp, sp, #12
 188              	.LCFI10:
 189              		.cfi_def_cfa_offset 16
 190 0004 00AF     		add	r7, sp, #0
 191              	.LCFI11:
 192              		.cfi_def_cfa_register 7
 193 0006 0346     		mov	r3, r0
 194 0008 FB71     		strb	r3, [r7, #7]
 224:libs/STM32F4xx_StdPeriph_Driver/src/stm32f4xx_flash.c ****   /* Check the parameters */
 225:libs/STM32F4xx_StdPeriph_Driver/src/stm32f4xx_flash.c ****   assert_param(IS_FUNCTIONAL_STATE(NewState));
 226:libs/STM32F4xx_StdPeriph_Driver/src/stm32f4xx_flash.c ****   
 227:libs/STM32F4xx_StdPeriph_Driver/src/stm32f4xx_flash.c ****   if(NewState != DISABLE)
 195              		.loc 1 227 0
 196 000a FB79     		ldrb	r3, [r7, #7]	@ zero_extendqisi2
 197 000c 002B     		cmp	r3, #0
 198 000e 0CD0     		beq	.L9
 228:libs/STM32F4xx_StdPeriph_Driver/src/stm32f4xx_flash.c ****   {
 229:libs/STM32F4xx_StdPeriph_Driver/src/stm32f4xx_flash.c ****     FLASH->ACR |= FLASH_ACR_DCEN;
 199              		.loc 1 229 0
 200 0010 4FF47053 		mov	r3, #15360
 201 0014 C4F20203 		movt	r3, 16386
 202 0018 4FF47052 		mov	r2, #15360
 203 001c C4F20202 		movt	r2, 16386
 204 0020 1268     		ldr	r2, [r2, #0]
 205 0022 42F48062 		orr	r2, r2, #1024
 206 0026 1A60     		str	r2, [r3, #0]
 207 0028 0BE0     		b	.L8
 208              	.L9:
 230:libs/STM32F4xx_StdPeriph_Driver/src/stm32f4xx_flash.c ****   }
 231:libs/STM32F4xx_StdPeriph_Driver/src/stm32f4xx_flash.c ****   else
 232:libs/STM32F4xx_StdPeriph_Driver/src/stm32f4xx_flash.c ****   {
 233:libs/STM32F4xx_StdPeriph_Driver/src/stm32f4xx_flash.c ****     FLASH->ACR &= (~FLASH_ACR_DCEN);
 209              		.loc 1 233 0
 210 002a 4FF47053 		mov	r3, #15360
 211 002e C4F20203 		movt	r3, 16386
 212 0032 4FF47052 		mov	r2, #15360
 213 0036 C4F20202 		movt	r2, 16386
 214 003a 1268     		ldr	r2, [r2, #0]
 215 003c 22F48062 		bic	r2, r2, #1024
 216 0040 1A60     		str	r2, [r3, #0]
 217              	.L8:
 234:libs/STM32F4xx_StdPeriph_Driver/src/stm32f4xx_flash.c ****   }
 235:libs/STM32F4xx_StdPeriph_Driver/src/stm32f4xx_flash.c **** }
 218              		.loc 1 235 0
 219 0042 07F10C07 		add	r7, r7, #12
 220 0046 BD46     		mov	sp, r7
 221 0048 80BC     		pop	{r7}
 222 004a 7047     		bx	lr
 223              		.cfi_endproc
 224              	.LFE113:
 226              		.section	.text.FLASH_InstructionCacheReset,"ax",%progbits
 227              		.align	2
 228              		.global	FLASH_InstructionCacheReset
 229              		.thumb
 230              		.thumb_func
 232              	FLASH_InstructionCacheReset:
 233              	.LFB114:
 236:libs/STM32F4xx_StdPeriph_Driver/src/stm32f4xx_flash.c **** 
 237:libs/STM32F4xx_StdPeriph_Driver/src/stm32f4xx_flash.c **** /**
 238:libs/STM32F4xx_StdPeriph_Driver/src/stm32f4xx_flash.c ****   * @brief  Resets the Instruction Cache.
 239:libs/STM32F4xx_StdPeriph_Driver/src/stm32f4xx_flash.c ****   * @note   This function must be used only when the Instruction Cache is disabled.  
 240:libs/STM32F4xx_StdPeriph_Driver/src/stm32f4xx_flash.c ****   * @param  None
 241:libs/STM32F4xx_StdPeriph_Driver/src/stm32f4xx_flash.c ****   * @retval None
 242:libs/STM32F4xx_StdPeriph_Driver/src/stm32f4xx_flash.c ****   */
 243:libs/STM32F4xx_StdPeriph_Driver/src/stm32f4xx_flash.c **** void FLASH_InstructionCacheReset(void)
 244:libs/STM32F4xx_StdPeriph_Driver/src/stm32f4xx_flash.c **** {
 234              		.loc 1 244 0
 235              		.cfi_startproc
 236              		@ args = 0, pretend = 0, frame = 0
 237              		@ frame_needed = 1, uses_anonymous_args = 0
 238              		@ link register save eliminated.
 239 0000 80B4     		push	{r7}
 240              	.LCFI12:
 241              		.cfi_def_cfa_offset 4
 242              		.cfi_offset 7, -4
 243 0002 00AF     		add	r7, sp, #0
 244              	.LCFI13:
 245              		.cfi_def_cfa_register 7
 245:libs/STM32F4xx_StdPeriph_Driver/src/stm32f4xx_flash.c ****   FLASH->ACR |= FLASH_ACR_ICRST;
 246              		.loc 1 245 0
 247 0004 4FF47053 		mov	r3, #15360
 248 0008 C4F20203 		movt	r3, 16386
 249 000c 4FF47052 		mov	r2, #15360
 250 0010 C4F20202 		movt	r2, 16386
 251 0014 1268     		ldr	r2, [r2, #0]
 252 0016 42F40062 		orr	r2, r2, #2048
 253 001a 1A60     		str	r2, [r3, #0]
 246:libs/STM32F4xx_StdPeriph_Driver/src/stm32f4xx_flash.c **** }
 254              		.loc 1 246 0
 255 001c BD46     		mov	sp, r7
 256 001e 80BC     		pop	{r7}
 257 0020 7047     		bx	lr
 258              		.cfi_endproc
 259              	.LFE114:
 261 0022 00BF     		.section	.text.FLASH_DataCacheReset,"ax",%progbits
 262              		.align	2
 263              		.global	FLASH_DataCacheReset
 264              		.thumb
 265              		.thumb_func
 267              	FLASH_DataCacheReset:
 268              	.LFB115:
 247:libs/STM32F4xx_StdPeriph_Driver/src/stm32f4xx_flash.c **** 
 248:libs/STM32F4xx_StdPeriph_Driver/src/stm32f4xx_flash.c **** /**
 249:libs/STM32F4xx_StdPeriph_Driver/src/stm32f4xx_flash.c ****   * @brief  Resets the Data Cache.
 250:libs/STM32F4xx_StdPeriph_Driver/src/stm32f4xx_flash.c ****   * @note   This function must be used only when the Data Cache is disabled.  
 251:libs/STM32F4xx_StdPeriph_Driver/src/stm32f4xx_flash.c ****   * @param  None
 252:libs/STM32F4xx_StdPeriph_Driver/src/stm32f4xx_flash.c ****   * @retval None
 253:libs/STM32F4xx_StdPeriph_Driver/src/stm32f4xx_flash.c ****   */
 254:libs/STM32F4xx_StdPeriph_Driver/src/stm32f4xx_flash.c **** void FLASH_DataCacheReset(void)
 255:libs/STM32F4xx_StdPeriph_Driver/src/stm32f4xx_flash.c **** {
 269              		.loc 1 255 0
 270              		.cfi_startproc
 271              		@ args = 0, pretend = 0, frame = 0
 272              		@ frame_needed = 1, uses_anonymous_args = 0
 273              		@ link register save eliminated.
 274 0000 80B4     		push	{r7}
 275              	.LCFI14:
 276              		.cfi_def_cfa_offset 4
 277              		.cfi_offset 7, -4
 278 0002 00AF     		add	r7, sp, #0
 279              	.LCFI15:
 280              		.cfi_def_cfa_register 7
 256:libs/STM32F4xx_StdPeriph_Driver/src/stm32f4xx_flash.c ****   FLASH->ACR |= FLASH_ACR_DCRST;
 281              		.loc 1 256 0
 282 0004 4FF47053 		mov	r3, #15360
 283 0008 C4F20203 		movt	r3, 16386
 284 000c 4FF47052 		mov	r2, #15360
 285 0010 C4F20202 		movt	r2, 16386
 286 0014 1268     		ldr	r2, [r2, #0]
 287 0016 42F48052 		orr	r2, r2, #4096
 288 001a 1A60     		str	r2, [r3, #0]
 257:libs/STM32F4xx_StdPeriph_Driver/src/stm32f4xx_flash.c **** }
 289              		.loc 1 257 0
 290 001c BD46     		mov	sp, r7
 291 001e 80BC     		pop	{r7}
 292 0020 7047     		bx	lr
 293              		.cfi_endproc
 294              	.LFE115:
 296 0022 00BF     		.section	.text.FLASH_Unlock,"ax",%progbits
 297              		.align	2
 298              		.global	FLASH_Unlock
 299              		.thumb
 300              		.thumb_func
 302              	FLASH_Unlock:
 303              	.LFB116:
 258:libs/STM32F4xx_StdPeriph_Driver/src/stm32f4xx_flash.c **** 
 259:libs/STM32F4xx_StdPeriph_Driver/src/stm32f4xx_flash.c **** /**
 260:libs/STM32F4xx_StdPeriph_Driver/src/stm32f4xx_flash.c ****   * @}
 261:libs/STM32F4xx_StdPeriph_Driver/src/stm32f4xx_flash.c ****   */
 262:libs/STM32F4xx_StdPeriph_Driver/src/stm32f4xx_flash.c **** 
 263:libs/STM32F4xx_StdPeriph_Driver/src/stm32f4xx_flash.c **** /** @defgroup FLASH_Group2 FLASH Memory Programming functions
 264:libs/STM32F4xx_StdPeriph_Driver/src/stm32f4xx_flash.c ****  *  @brief   FLASH Memory Programming functions
 265:libs/STM32F4xx_StdPeriph_Driver/src/stm32f4xx_flash.c ****  *
 266:libs/STM32F4xx_StdPeriph_Driver/src/stm32f4xx_flash.c **** @verbatim   
 267:libs/STM32F4xx_StdPeriph_Driver/src/stm32f4xx_flash.c ****  ===============================================================================
 268:libs/STM32F4xx_StdPeriph_Driver/src/stm32f4xx_flash.c ****                       FLASH Memory Programming functions
 269:libs/STM32F4xx_StdPeriph_Driver/src/stm32f4xx_flash.c ****  ===============================================================================   
 270:libs/STM32F4xx_StdPeriph_Driver/src/stm32f4xx_flash.c **** 
 271:libs/STM32F4xx_StdPeriph_Driver/src/stm32f4xx_flash.c ****    This group includes the following functions:
 272:libs/STM32F4xx_StdPeriph_Driver/src/stm32f4xx_flash.c ****     - void FLASH_Unlock(void)
 273:libs/STM32F4xx_StdPeriph_Driver/src/stm32f4xx_flash.c ****     - void FLASH_Lock(void)
 274:libs/STM32F4xx_StdPeriph_Driver/src/stm32f4xx_flash.c ****     - FLASH_Status FLASH_EraseSector(uint32_t FLASH_Sector, uint8_t VoltageRange)
 275:libs/STM32F4xx_StdPeriph_Driver/src/stm32f4xx_flash.c ****     - FLASH_Status FLASH_EraseAllSectors(uint8_t VoltageRange)
 276:libs/STM32F4xx_StdPeriph_Driver/src/stm32f4xx_flash.c ****     - FLASH_Status FLASH_ProgramDoubleWord(uint32_t Address, uint64_t Data)
 277:libs/STM32F4xx_StdPeriph_Driver/src/stm32f4xx_flash.c ****     - FLASH_Status FLASH_ProgramWord(uint32_t Address, uint32_t Data)
 278:libs/STM32F4xx_StdPeriph_Driver/src/stm32f4xx_flash.c ****     - FLASH_Status FLASH_ProgramHalfWord(uint32_t Address, uint16_t Data)
 279:libs/STM32F4xx_StdPeriph_Driver/src/stm32f4xx_flash.c ****     - FLASH_Status FLASH_ProgramByte(uint32_t Address, uint8_t Data)
 280:libs/STM32F4xx_StdPeriph_Driver/src/stm32f4xx_flash.c ****    
 281:libs/STM32F4xx_StdPeriph_Driver/src/stm32f4xx_flash.c ****    Any operation of erase or program should follow these steps:
 282:libs/STM32F4xx_StdPeriph_Driver/src/stm32f4xx_flash.c ****    1. Call the FLASH_Unlock() function to enable the FLASH control register access
 283:libs/STM32F4xx_StdPeriph_Driver/src/stm32f4xx_flash.c **** 
 284:libs/STM32F4xx_StdPeriph_Driver/src/stm32f4xx_flash.c ****    2. Call the desired function to erase sector(s) or program data
 285:libs/STM32F4xx_StdPeriph_Driver/src/stm32f4xx_flash.c **** 
 286:libs/STM32F4xx_StdPeriph_Driver/src/stm32f4xx_flash.c ****    3. Call the FLASH_Lock() function to disable the FLASH control register access
 287:libs/STM32F4xx_StdPeriph_Driver/src/stm32f4xx_flash.c ****       (recommended to protect the FLASH memory against possible unwanted operation)
 288:libs/STM32F4xx_StdPeriph_Driver/src/stm32f4xx_flash.c ****     
 289:libs/STM32F4xx_StdPeriph_Driver/src/stm32f4xx_flash.c **** @endverbatim
 290:libs/STM32F4xx_StdPeriph_Driver/src/stm32f4xx_flash.c ****   * @{
 291:libs/STM32F4xx_StdPeriph_Driver/src/stm32f4xx_flash.c ****   */
 292:libs/STM32F4xx_StdPeriph_Driver/src/stm32f4xx_flash.c **** 
 293:libs/STM32F4xx_StdPeriph_Driver/src/stm32f4xx_flash.c **** /**
 294:libs/STM32F4xx_StdPeriph_Driver/src/stm32f4xx_flash.c ****   * @brief  Unlocks the FLASH control register access
 295:libs/STM32F4xx_StdPeriph_Driver/src/stm32f4xx_flash.c ****   * @param  None
 296:libs/STM32F4xx_StdPeriph_Driver/src/stm32f4xx_flash.c ****   * @retval None
 297:libs/STM32F4xx_StdPeriph_Driver/src/stm32f4xx_flash.c ****   */
 298:libs/STM32F4xx_StdPeriph_Driver/src/stm32f4xx_flash.c **** void FLASH_Unlock(void)
 299:libs/STM32F4xx_StdPeriph_Driver/src/stm32f4xx_flash.c **** {
 304              		.loc 1 299 0
 305              		.cfi_startproc
 306              		@ args = 0, pretend = 0, frame = 0
 307              		@ frame_needed = 1, uses_anonymous_args = 0
 308              		@ link register save eliminated.
 309 0000 80B4     		push	{r7}
 310              	.LCFI16:
 311              		.cfi_def_cfa_offset 4
 312              		.cfi_offset 7, -4
 313 0002 00AF     		add	r7, sp, #0
 314              	.LCFI17:
 315              		.cfi_def_cfa_register 7
 300:libs/STM32F4xx_StdPeriph_Driver/src/stm32f4xx_flash.c ****   if((FLASH->CR & FLASH_CR_LOCK) != RESET)
 316              		.loc 1 300 0
 317 0004 4FF47053 		mov	r3, #15360
 318 0008 C4F20203 		movt	r3, 16386
 319 000c 1B69     		ldr	r3, [r3, #16]
 320 000e 002B     		cmp	r3, #0
 321 0010 11DA     		bge	.L13
 301:libs/STM32F4xx_StdPeriph_Driver/src/stm32f4xx_flash.c ****   {
 302:libs/STM32F4xx_StdPeriph_Driver/src/stm32f4xx_flash.c ****     /* Authorize the FLASH Registers access */
 303:libs/STM32F4xx_StdPeriph_Driver/src/stm32f4xx_flash.c ****     FLASH->KEYR = FLASH_KEY1;
 322              		.loc 1 303 0
 323 0012 4FF47053 		mov	r3, #15360
 324 0016 C4F20203 		movt	r3, 16386
 325 001a 40F22312 		movw	r2, #291
 326 001e C4F26752 		movt	r2, 17767
 327 0022 5A60     		str	r2, [r3, #4]
 304:libs/STM32F4xx_StdPeriph_Driver/src/stm32f4xx_flash.c ****     FLASH->KEYR = FLASH_KEY2;
 328              		.loc 1 304 0
 329 0024 4FF47053 		mov	r3, #15360
 330 0028 C4F20203 		movt	r3, 16386
 331 002c 48F6AB12 		movw	r2, #35243
 332 0030 CCF6EF52 		movt	r2, 52719
 333 0034 5A60     		str	r2, [r3, #4]
 334              	.L13:
 305:libs/STM32F4xx_StdPeriph_Driver/src/stm32f4xx_flash.c ****   }  
 306:libs/STM32F4xx_StdPeriph_Driver/src/stm32f4xx_flash.c **** }
 335              		.loc 1 306 0
 336 0036 BD46     		mov	sp, r7
 337 0038 80BC     		pop	{r7}
 338 003a 7047     		bx	lr
 339              		.cfi_endproc
 340              	.LFE116:
 342              		.section	.text.FLASH_Lock,"ax",%progbits
 343              		.align	2
 344              		.global	FLASH_Lock
 345              		.thumb
 346              		.thumb_func
 348              	FLASH_Lock:
 349              	.LFB117:
 307:libs/STM32F4xx_StdPeriph_Driver/src/stm32f4xx_flash.c **** 
 308:libs/STM32F4xx_StdPeriph_Driver/src/stm32f4xx_flash.c **** /**
 309:libs/STM32F4xx_StdPeriph_Driver/src/stm32f4xx_flash.c ****   * @brief  Locks the FLASH control register access
 310:libs/STM32F4xx_StdPeriph_Driver/src/stm32f4xx_flash.c ****   * @param  None
 311:libs/STM32F4xx_StdPeriph_Driver/src/stm32f4xx_flash.c ****   * @retval None
 312:libs/STM32F4xx_StdPeriph_Driver/src/stm32f4xx_flash.c ****   */
 313:libs/STM32F4xx_StdPeriph_Driver/src/stm32f4xx_flash.c **** void FLASH_Lock(void)
 314:libs/STM32F4xx_StdPeriph_Driver/src/stm32f4xx_flash.c **** {
 350              		.loc 1 314 0
 351              		.cfi_startproc
 352              		@ args = 0, pretend = 0, frame = 0
 353              		@ frame_needed = 1, uses_anonymous_args = 0
 354              		@ link register save eliminated.
 355 0000 80B4     		push	{r7}
 356              	.LCFI18:
 357              		.cfi_def_cfa_offset 4
 358              		.cfi_offset 7, -4
 359 0002 00AF     		add	r7, sp, #0
 360              	.LCFI19:
 361              		.cfi_def_cfa_register 7
 315:libs/STM32F4xx_StdPeriph_Driver/src/stm32f4xx_flash.c ****   /* Set the LOCK Bit to lock the FLASH Registers access */
 316:libs/STM32F4xx_StdPeriph_Driver/src/stm32f4xx_flash.c ****   FLASH->CR |= FLASH_CR_LOCK;
 362              		.loc 1 316 0
 363 0004 4FF47053 		mov	r3, #15360
 364 0008 C4F20203 		movt	r3, 16386
 365 000c 4FF47052 		mov	r2, #15360
 366 0010 C4F20202 		movt	r2, 16386
 367 0014 1269     		ldr	r2, [r2, #16]
 368 0016 42F00042 		orr	r2, r2, #-2147483648
 369 001a 1A61     		str	r2, [r3, #16]
 317:libs/STM32F4xx_StdPeriph_Driver/src/stm32f4xx_flash.c **** }
 370              		.loc 1 317 0
 371 001c BD46     		mov	sp, r7
 372 001e 80BC     		pop	{r7}
 373 0020 7047     		bx	lr
 374              		.cfi_endproc
 375              	.LFE117:
 377 0022 00BF     		.section	.text.FLASH_EraseSector,"ax",%progbits
 378              		.align	2
 379              		.global	FLASH_EraseSector
 380              		.thumb
 381              		.thumb_func
 383              	FLASH_EraseSector:
 384              	.LFB118:
 318:libs/STM32F4xx_StdPeriph_Driver/src/stm32f4xx_flash.c **** 
 319:libs/STM32F4xx_StdPeriph_Driver/src/stm32f4xx_flash.c **** /**
 320:libs/STM32F4xx_StdPeriph_Driver/src/stm32f4xx_flash.c ****   * @brief  Erases a specified FLASH Sector.
 321:libs/STM32F4xx_StdPeriph_Driver/src/stm32f4xx_flash.c ****   *   
 322:libs/STM32F4xx_StdPeriph_Driver/src/stm32f4xx_flash.c ****   * @param  FLASH_Sector: The Sector number to be erased.
 323:libs/STM32F4xx_StdPeriph_Driver/src/stm32f4xx_flash.c ****   *          This parameter can be a value between FLASH_Sector_0 and FLASH_Sector_11
 324:libs/STM32F4xx_StdPeriph_Driver/src/stm32f4xx_flash.c ****   *    
 325:libs/STM32F4xx_StdPeriph_Driver/src/stm32f4xx_flash.c ****   * @param  VoltageRange: The device voltage range which defines the erase parallelism.  
 326:libs/STM32F4xx_StdPeriph_Driver/src/stm32f4xx_flash.c ****   *          This parameter can be one of the following values:
 327:libs/STM32F4xx_StdPeriph_Driver/src/stm32f4xx_flash.c ****   *            @arg VoltageRange_1: when the device voltage range is 1.8V to 2.1V, 
 328:libs/STM32F4xx_StdPeriph_Driver/src/stm32f4xx_flash.c ****   *                                  the operation will be done by byte (8-bit) 
 329:libs/STM32F4xx_StdPeriph_Driver/src/stm32f4xx_flash.c ****   *            @arg VoltageRange_2: when the device voltage range is 2.1V to 2.7V,
 330:libs/STM32F4xx_StdPeriph_Driver/src/stm32f4xx_flash.c ****   *                                  the operation will be done by half word (16-bit)
 331:libs/STM32F4xx_StdPeriph_Driver/src/stm32f4xx_flash.c ****   *            @arg VoltageRange_3: when the device voltage range is 2.7V to 3.6V,
 332:libs/STM32F4xx_StdPeriph_Driver/src/stm32f4xx_flash.c ****   *                                  the operation will be done by word (32-bit)
 333:libs/STM32F4xx_StdPeriph_Driver/src/stm32f4xx_flash.c ****   *            @arg VoltageRange_4: when the device voltage range is 2.7V to 3.6V + External Vpp, 
 334:libs/STM32F4xx_StdPeriph_Driver/src/stm32f4xx_flash.c ****   *                                  the operation will be done by double word (64-bit)
 335:libs/STM32F4xx_StdPeriph_Driver/src/stm32f4xx_flash.c ****   *       
 336:libs/STM32F4xx_StdPeriph_Driver/src/stm32f4xx_flash.c ****   * @retval FLASH Status: The returned value can be: FLASH_BUSY, FLASH_ERROR_PROGRAM,
 337:libs/STM32F4xx_StdPeriph_Driver/src/stm32f4xx_flash.c ****   *                       FLASH_ERROR_WRP, FLASH_ERROR_OPERATION or FLASH_COMPLETE.
 338:libs/STM32F4xx_StdPeriph_Driver/src/stm32f4xx_flash.c ****   */
 339:libs/STM32F4xx_StdPeriph_Driver/src/stm32f4xx_flash.c **** FLASH_Status FLASH_EraseSector(uint32_t FLASH_Sector, uint8_t VoltageRange)
 340:libs/STM32F4xx_StdPeriph_Driver/src/stm32f4xx_flash.c **** {
 385              		.loc 1 340 0
 386              		.cfi_startproc
 387              		@ args = 0, pretend = 0, frame = 16
 388              		@ frame_needed = 1, uses_anonymous_args = 0
 389 0000 80B5     		push	{r7, lr}
 390              	.LCFI20:
 391              		.cfi_def_cfa_offset 8
 392              		.cfi_offset 14, -4
 393              		.cfi_offset 7, -8
 394 0002 84B0     		sub	sp, sp, #16
 395              	.LCFI21:
 396              		.cfi_def_cfa_offset 24
 397 0004 00AF     		add	r7, sp, #0
 398              	.LCFI22:
 399              		.cfi_def_cfa_register 7
 400 0006 7860     		str	r0, [r7, #4]
 401 0008 0B46     		mov	r3, r1
 402 000a FB70     		strb	r3, [r7, #3]
 341:libs/STM32F4xx_StdPeriph_Driver/src/stm32f4xx_flash.c ****   uint32_t tmp_psize = 0x0;
 403              		.loc 1 341 0
 404 000c 4FF00003 		mov	r3, #0
 405 0010 FB60     		str	r3, [r7, #12]
 342:libs/STM32F4xx_StdPeriph_Driver/src/stm32f4xx_flash.c ****   FLASH_Status status = FLASH_COMPLETE;
 406              		.loc 1 342 0
 407 0012 4FF00803 		mov	r3, #8
 408 0016 FB72     		strb	r3, [r7, #11]
 343:libs/STM32F4xx_StdPeriph_Driver/src/stm32f4xx_flash.c **** 
 344:libs/STM32F4xx_StdPeriph_Driver/src/stm32f4xx_flash.c ****   /* Check the parameters */
 345:libs/STM32F4xx_StdPeriph_Driver/src/stm32f4xx_flash.c ****   assert_param(IS_FLASH_SECTOR(FLASH_Sector));
 346:libs/STM32F4xx_StdPeriph_Driver/src/stm32f4xx_flash.c ****   assert_param(IS_VOLTAGERANGE(VoltageRange));
 347:libs/STM32F4xx_StdPeriph_Driver/src/stm32f4xx_flash.c ****   
 348:libs/STM32F4xx_StdPeriph_Driver/src/stm32f4xx_flash.c ****   if(VoltageRange == VoltageRange_1)
 409              		.loc 1 348 0
 410 0018 FB78     		ldrb	r3, [r7, #3]	@ zero_extendqisi2
 411 001a 002B     		cmp	r3, #0
 412 001c 03D1     		bne	.L17
 349:libs/STM32F4xx_StdPeriph_Driver/src/stm32f4xx_flash.c ****   {
 350:libs/STM32F4xx_StdPeriph_Driver/src/stm32f4xx_flash.c ****      tmp_psize = FLASH_PSIZE_BYTE;
 413              		.loc 1 350 0
 414 001e 4FF00003 		mov	r3, #0
 415 0022 FB60     		str	r3, [r7, #12]
 416 0024 10E0     		b	.L18
 417              	.L17:
 351:libs/STM32F4xx_StdPeriph_Driver/src/stm32f4xx_flash.c ****   }
 352:libs/STM32F4xx_StdPeriph_Driver/src/stm32f4xx_flash.c ****   else if(VoltageRange == VoltageRange_2)
 418              		.loc 1 352 0
 419 0026 FB78     		ldrb	r3, [r7, #3]	@ zero_extendqisi2
 420 0028 012B     		cmp	r3, #1
 421 002a 03D1     		bne	.L19
 353:libs/STM32F4xx_StdPeriph_Driver/src/stm32f4xx_flash.c ****   {
 354:libs/STM32F4xx_StdPeriph_Driver/src/stm32f4xx_flash.c ****     tmp_psize = FLASH_PSIZE_HALF_WORD;
 422              		.loc 1 354 0
 423 002c 4FF48073 		mov	r3, #256
 424 0030 FB60     		str	r3, [r7, #12]
 425 0032 09E0     		b	.L18
 426              	.L19:
 355:libs/STM32F4xx_StdPeriph_Driver/src/stm32f4xx_flash.c ****   }
 356:libs/STM32F4xx_StdPeriph_Driver/src/stm32f4xx_flash.c ****   else if(VoltageRange == VoltageRange_3)
 427              		.loc 1 356 0
 428 0034 FB78     		ldrb	r3, [r7, #3]	@ zero_extendqisi2
 429 0036 022B     		cmp	r3, #2
 430 0038 03D1     		bne	.L20
 357:libs/STM32F4xx_StdPeriph_Driver/src/stm32f4xx_flash.c ****   {
 358:libs/STM32F4xx_StdPeriph_Driver/src/stm32f4xx_flash.c ****     tmp_psize = FLASH_PSIZE_WORD;
 431              		.loc 1 358 0
 432 003a 4FF40073 		mov	r3, #512
 433 003e FB60     		str	r3, [r7, #12]
 434 0040 02E0     		b	.L18
 435              	.L20:
 359:libs/STM32F4xx_StdPeriph_Driver/src/stm32f4xx_flash.c ****   }
 360:libs/STM32F4xx_StdPeriph_Driver/src/stm32f4xx_flash.c ****   else
 361:libs/STM32F4xx_StdPeriph_Driver/src/stm32f4xx_flash.c ****   {
 362:libs/STM32F4xx_StdPeriph_Driver/src/stm32f4xx_flash.c ****     tmp_psize = FLASH_PSIZE_DOUBLE_WORD;
 436              		.loc 1 362 0
 437 0042 4FF44073 		mov	r3, #768
 438 0046 FB60     		str	r3, [r7, #12]
 439              	.L18:
 363:libs/STM32F4xx_StdPeriph_Driver/src/stm32f4xx_flash.c ****   }
 364:libs/STM32F4xx_StdPeriph_Driver/src/stm32f4xx_flash.c ****   /* Wait for last operation to be completed */
 365:libs/STM32F4xx_StdPeriph_Driver/src/stm32f4xx_flash.c ****   status = FLASH_WaitForLastOperation();
 440              		.loc 1 365 0
 441 0048 FFF7FEFF 		bl	FLASH_WaitForLastOperation
 442 004c 0346     		mov	r3, r0
 443 004e FB72     		strb	r3, [r7, #11]
 366:libs/STM32F4xx_StdPeriph_Driver/src/stm32f4xx_flash.c ****   
 367:libs/STM32F4xx_StdPeriph_Driver/src/stm32f4xx_flash.c ****   if(status == FLASH_COMPLETE)
 444              		.loc 1 367 0
 445 0050 FB7A     		ldrb	r3, [r7, #11]	@ zero_extendqisi2
 446 0052 082B     		cmp	r3, #8
 447 0054 59D1     		bne	.L21
 368:libs/STM32F4xx_StdPeriph_Driver/src/stm32f4xx_flash.c ****   { 
 369:libs/STM32F4xx_StdPeriph_Driver/src/stm32f4xx_flash.c ****     /* if the previous operation is completed, proceed to erase the sector */
 370:libs/STM32F4xx_StdPeriph_Driver/src/stm32f4xx_flash.c ****     FLASH->CR &= CR_PSIZE_MASK;
 448              		.loc 1 370 0
 449 0056 4FF47053 		mov	r3, #15360
 450 005a C4F20203 		movt	r3, 16386
 451 005e 4FF47052 		mov	r2, #15360
 452 0062 C4F20202 		movt	r2, 16386
 453 0066 1269     		ldr	r2, [r2, #16]
 454 0068 22F44072 		bic	r2, r2, #768
 455 006c 1A61     		str	r2, [r3, #16]
 371:libs/STM32F4xx_StdPeriph_Driver/src/stm32f4xx_flash.c ****     FLASH->CR |= tmp_psize;
 456              		.loc 1 371 0
 457 006e 4FF47053 		mov	r3, #15360
 458 0072 C4F20203 		movt	r3, 16386
 459 0076 4FF47052 		mov	r2, #15360
 460 007a C4F20202 		movt	r2, 16386
 461 007e 1169     		ldr	r1, [r2, #16]
 462 0080 FA68     		ldr	r2, [r7, #12]
 463 0082 0A43     		orrs	r2, r2, r1
 464 0084 1A61     		str	r2, [r3, #16]
 372:libs/STM32F4xx_StdPeriph_Driver/src/stm32f4xx_flash.c ****     FLASH->CR &= SECTOR_MASK;
 465              		.loc 1 372 0
 466 0086 4FF47053 		mov	r3, #15360
 467 008a C4F20203 		movt	r3, 16386
 468 008e 4FF47052 		mov	r2, #15360
 469 0092 C4F20202 		movt	r2, 16386
 470 0096 1269     		ldr	r2, [r2, #16]
 471 0098 22F0F802 		bic	r2, r2, #248
 472 009c 1A61     		str	r2, [r3, #16]
 373:libs/STM32F4xx_StdPeriph_Driver/src/stm32f4xx_flash.c ****     FLASH->CR |= FLASH_CR_SER | FLASH_Sector;
 473              		.loc 1 373 0
 474 009e 4FF47053 		mov	r3, #15360
 475 00a2 C4F20203 		movt	r3, 16386
 476 00a6 4FF47052 		mov	r2, #15360
 477 00aa C4F20202 		movt	r2, 16386
 478 00ae 1169     		ldr	r1, [r2, #16]
 479 00b0 7A68     		ldr	r2, [r7, #4]
 480 00b2 0A43     		orrs	r2, r2, r1
 481 00b4 42F00202 		orr	r2, r2, #2
 482 00b8 1A61     		str	r2, [r3, #16]
 374:libs/STM32F4xx_StdPeriph_Driver/src/stm32f4xx_flash.c ****     FLASH->CR |= FLASH_CR_STRT;
 483              		.loc 1 374 0
 484 00ba 4FF47053 		mov	r3, #15360
 485 00be C4F20203 		movt	r3, 16386
 486 00c2 4FF47052 		mov	r2, #15360
 487 00c6 C4F20202 		movt	r2, 16386
 488 00ca 1269     		ldr	r2, [r2, #16]
 489 00cc 42F48032 		orr	r2, r2, #65536
 490 00d0 1A61     		str	r2, [r3, #16]
 375:libs/STM32F4xx_StdPeriph_Driver/src/stm32f4xx_flash.c ****     
 376:libs/STM32F4xx_StdPeriph_Driver/src/stm32f4xx_flash.c ****     /* Wait for last operation to be completed */
 377:libs/STM32F4xx_StdPeriph_Driver/src/stm32f4xx_flash.c ****     status = FLASH_WaitForLastOperation();
 491              		.loc 1 377 0
 492 00d2 FFF7FEFF 		bl	FLASH_WaitForLastOperation
 493 00d6 0346     		mov	r3, r0
 494 00d8 FB72     		strb	r3, [r7, #11]
 378:libs/STM32F4xx_StdPeriph_Driver/src/stm32f4xx_flash.c ****     
 379:libs/STM32F4xx_StdPeriph_Driver/src/stm32f4xx_flash.c ****     /* if the erase operation is completed, disable the SER Bit */
 380:libs/STM32F4xx_StdPeriph_Driver/src/stm32f4xx_flash.c ****     FLASH->CR &= (~FLASH_CR_SER);
 495              		.loc 1 380 0
 496 00da 4FF47053 		mov	r3, #15360
 497 00de C4F20203 		movt	r3, 16386
 498 00e2 4FF47052 		mov	r2, #15360
 499 00e6 C4F20202 		movt	r2, 16386
 500 00ea 1269     		ldr	r2, [r2, #16]
 501 00ec 22F00202 		bic	r2, r2, #2
 502 00f0 1A61     		str	r2, [r3, #16]
 381:libs/STM32F4xx_StdPeriph_Driver/src/stm32f4xx_flash.c ****     FLASH->CR &= SECTOR_MASK; 
 503              		.loc 1 381 0
 504 00f2 4FF47053 		mov	r3, #15360
 505 00f6 C4F20203 		movt	r3, 16386
 506 00fa 4FF47052 		mov	r2, #15360
 507 00fe C4F20202 		movt	r2, 16386
 508 0102 1269     		ldr	r2, [r2, #16]
 509 0104 22F0F802 		bic	r2, r2, #248
 510 0108 1A61     		str	r2, [r3, #16]
 511              	.L21:
 382:libs/STM32F4xx_StdPeriph_Driver/src/stm32f4xx_flash.c ****   }
 383:libs/STM32F4xx_StdPeriph_Driver/src/stm32f4xx_flash.c ****   /* Return the Erase Status */
 384:libs/STM32F4xx_StdPeriph_Driver/src/stm32f4xx_flash.c ****   return status;
 512              		.loc 1 384 0
 513 010a FB7A     		ldrb	r3, [r7, #11]	@ zero_extendqisi2
 385:libs/STM32F4xx_StdPeriph_Driver/src/stm32f4xx_flash.c **** }
 514              		.loc 1 385 0
 515 010c 1846     		mov	r0, r3
 516 010e 07F11007 		add	r7, r7, #16
 517 0112 BD46     		mov	sp, r7
 518 0114 80BD     		pop	{r7, pc}
 519              		.cfi_endproc
 520              	.LFE118:
 522 0116 00BF     		.section	.text.FLASH_EraseAllSectors,"ax",%progbits
 523              		.align	2
 524              		.global	FLASH_EraseAllSectors
 525              		.thumb
 526              		.thumb_func
 528              	FLASH_EraseAllSectors:
 529              	.LFB119:
 386:libs/STM32F4xx_StdPeriph_Driver/src/stm32f4xx_flash.c **** 
 387:libs/STM32F4xx_StdPeriph_Driver/src/stm32f4xx_flash.c **** /**
 388:libs/STM32F4xx_StdPeriph_Driver/src/stm32f4xx_flash.c ****   * @brief  Erases all FLASH Sectors.
 389:libs/STM32F4xx_StdPeriph_Driver/src/stm32f4xx_flash.c ****   *    
 390:libs/STM32F4xx_StdPeriph_Driver/src/stm32f4xx_flash.c ****   * @param  VoltageRange: The device voltage range which defines the erase parallelism.  
 391:libs/STM32F4xx_StdPeriph_Driver/src/stm32f4xx_flash.c ****   *          This parameter can be one of the following values:
 392:libs/STM32F4xx_StdPeriph_Driver/src/stm32f4xx_flash.c ****   *            @arg VoltageRange_1: when the device voltage range is 1.8V to 2.1V, 
 393:libs/STM32F4xx_StdPeriph_Driver/src/stm32f4xx_flash.c ****   *                                  the operation will be done by byte (8-bit) 
 394:libs/STM32F4xx_StdPeriph_Driver/src/stm32f4xx_flash.c ****   *            @arg VoltageRange_2: when the device voltage range is 2.1V to 2.7V,
 395:libs/STM32F4xx_StdPeriph_Driver/src/stm32f4xx_flash.c ****   *                                  the operation will be done by half word (16-bit)
 396:libs/STM32F4xx_StdPeriph_Driver/src/stm32f4xx_flash.c ****   *            @arg VoltageRange_3: when the device voltage range is 2.7V to 3.6V,
 397:libs/STM32F4xx_StdPeriph_Driver/src/stm32f4xx_flash.c ****   *                                  the operation will be done by word (32-bit)
 398:libs/STM32F4xx_StdPeriph_Driver/src/stm32f4xx_flash.c ****   *            @arg VoltageRange_4: when the device voltage range is 2.7V to 3.6V + External Vpp, 
 399:libs/STM32F4xx_StdPeriph_Driver/src/stm32f4xx_flash.c ****   *                                  the operation will be done by double word (64-bit)
 400:libs/STM32F4xx_StdPeriph_Driver/src/stm32f4xx_flash.c ****   *       
 401:libs/STM32F4xx_StdPeriph_Driver/src/stm32f4xx_flash.c ****   * @retval FLASH Status: The returned value can be: FLASH_BUSY, FLASH_ERROR_PROGRAM,
 402:libs/STM32F4xx_StdPeriph_Driver/src/stm32f4xx_flash.c ****   *                       FLASH_ERROR_WRP, FLASH_ERROR_OPERATION or FLASH_COMPLETE.
 403:libs/STM32F4xx_StdPeriph_Driver/src/stm32f4xx_flash.c ****   */
 404:libs/STM32F4xx_StdPeriph_Driver/src/stm32f4xx_flash.c **** FLASH_Status FLASH_EraseAllSectors(uint8_t VoltageRange)
 405:libs/STM32F4xx_StdPeriph_Driver/src/stm32f4xx_flash.c **** {
 530              		.loc 1 405 0
 531              		.cfi_startproc
 532              		@ args = 0, pretend = 0, frame = 16
 533              		@ frame_needed = 1, uses_anonymous_args = 0
 534 0000 80B5     		push	{r7, lr}
 535              	.LCFI23:
 536              		.cfi_def_cfa_offset 8
 537              		.cfi_offset 14, -4
 538              		.cfi_offset 7, -8
 539 0002 84B0     		sub	sp, sp, #16
 540              	.LCFI24:
 541              		.cfi_def_cfa_offset 24
 542 0004 00AF     		add	r7, sp, #0
 543              	.LCFI25:
 544              		.cfi_def_cfa_register 7
 545 0006 0346     		mov	r3, r0
 546 0008 FB71     		strb	r3, [r7, #7]
 406:libs/STM32F4xx_StdPeriph_Driver/src/stm32f4xx_flash.c ****   uint32_t tmp_psize = 0x0;
 547              		.loc 1 406 0
 548 000a 4FF00003 		mov	r3, #0
 549 000e FB60     		str	r3, [r7, #12]
 407:libs/STM32F4xx_StdPeriph_Driver/src/stm32f4xx_flash.c ****   FLASH_Status status = FLASH_COMPLETE;
 550              		.loc 1 407 0
 551 0010 4FF00803 		mov	r3, #8
 552 0014 FB72     		strb	r3, [r7, #11]
 408:libs/STM32F4xx_StdPeriph_Driver/src/stm32f4xx_flash.c ****   
 409:libs/STM32F4xx_StdPeriph_Driver/src/stm32f4xx_flash.c ****   /* Wait for last operation to be completed */
 410:libs/STM32F4xx_StdPeriph_Driver/src/stm32f4xx_flash.c ****   status = FLASH_WaitForLastOperation();
 553              		.loc 1 410 0
 554 0016 FFF7FEFF 		bl	FLASH_WaitForLastOperation
 555 001a 0346     		mov	r3, r0
 556 001c FB72     		strb	r3, [r7, #11]
 411:libs/STM32F4xx_StdPeriph_Driver/src/stm32f4xx_flash.c ****   assert_param(IS_VOLTAGERANGE(VoltageRange));
 412:libs/STM32F4xx_StdPeriph_Driver/src/stm32f4xx_flash.c ****   
 413:libs/STM32F4xx_StdPeriph_Driver/src/stm32f4xx_flash.c ****   if(VoltageRange == VoltageRange_1)
 557              		.loc 1 413 0
 558 001e FB79     		ldrb	r3, [r7, #7]	@ zero_extendqisi2
 559 0020 002B     		cmp	r3, #0
 560 0022 03D1     		bne	.L23
 414:libs/STM32F4xx_StdPeriph_Driver/src/stm32f4xx_flash.c ****   {
 415:libs/STM32F4xx_StdPeriph_Driver/src/stm32f4xx_flash.c ****      tmp_psize = FLASH_PSIZE_BYTE;
 561              		.loc 1 415 0
 562 0024 4FF00003 		mov	r3, #0
 563 0028 FB60     		str	r3, [r7, #12]
 564 002a 10E0     		b	.L24
 565              	.L23:
 416:libs/STM32F4xx_StdPeriph_Driver/src/stm32f4xx_flash.c ****   }
 417:libs/STM32F4xx_StdPeriph_Driver/src/stm32f4xx_flash.c ****   else if(VoltageRange == VoltageRange_2)
 566              		.loc 1 417 0
 567 002c FB79     		ldrb	r3, [r7, #7]	@ zero_extendqisi2
 568 002e 012B     		cmp	r3, #1
 569 0030 03D1     		bne	.L25
 418:libs/STM32F4xx_StdPeriph_Driver/src/stm32f4xx_flash.c ****   {
 419:libs/STM32F4xx_StdPeriph_Driver/src/stm32f4xx_flash.c ****     tmp_psize = FLASH_PSIZE_HALF_WORD;
 570              		.loc 1 419 0
 571 0032 4FF48073 		mov	r3, #256
 572 0036 FB60     		str	r3, [r7, #12]
 573 0038 09E0     		b	.L24
 574              	.L25:
 420:libs/STM32F4xx_StdPeriph_Driver/src/stm32f4xx_flash.c ****   }
 421:libs/STM32F4xx_StdPeriph_Driver/src/stm32f4xx_flash.c ****   else if(VoltageRange == VoltageRange_3)
 575              		.loc 1 421 0
 576 003a FB79     		ldrb	r3, [r7, #7]	@ zero_extendqisi2
 577 003c 022B     		cmp	r3, #2
 578 003e 03D1     		bne	.L26
 422:libs/STM32F4xx_StdPeriph_Driver/src/stm32f4xx_flash.c ****   {
 423:libs/STM32F4xx_StdPeriph_Driver/src/stm32f4xx_flash.c ****     tmp_psize = FLASH_PSIZE_WORD;
 579              		.loc 1 423 0
 580 0040 4FF40073 		mov	r3, #512
 581 0044 FB60     		str	r3, [r7, #12]
 582 0046 02E0     		b	.L24
 583              	.L26:
 424:libs/STM32F4xx_StdPeriph_Driver/src/stm32f4xx_flash.c ****   }
 425:libs/STM32F4xx_StdPeriph_Driver/src/stm32f4xx_flash.c ****   else
 426:libs/STM32F4xx_StdPeriph_Driver/src/stm32f4xx_flash.c ****   {
 427:libs/STM32F4xx_StdPeriph_Driver/src/stm32f4xx_flash.c ****     tmp_psize = FLASH_PSIZE_DOUBLE_WORD;
 584              		.loc 1 427 0
 585 0048 4FF44073 		mov	r3, #768
 586 004c FB60     		str	r3, [r7, #12]
 587              	.L24:
 428:libs/STM32F4xx_StdPeriph_Driver/src/stm32f4xx_flash.c ****   }  
 429:libs/STM32F4xx_StdPeriph_Driver/src/stm32f4xx_flash.c ****   if(status == FLASH_COMPLETE)
 588              		.loc 1 429 0
 589 004e FB7A     		ldrb	r3, [r7, #11]	@ zero_extendqisi2
 590 0050 082B     		cmp	r3, #8
 591 0052 3FD1     		bne	.L27
 430:libs/STM32F4xx_StdPeriph_Driver/src/stm32f4xx_flash.c ****   {
 431:libs/STM32F4xx_StdPeriph_Driver/src/stm32f4xx_flash.c ****     /* if the previous operation is completed, proceed to erase all sectors */
 432:libs/STM32F4xx_StdPeriph_Driver/src/stm32f4xx_flash.c ****      FLASH->CR &= CR_PSIZE_MASK;
 592              		.loc 1 432 0
 593 0054 4FF47053 		mov	r3, #15360
 594 0058 C4F20203 		movt	r3, 16386
 595 005c 4FF47052 		mov	r2, #15360
 596 0060 C4F20202 		movt	r2, 16386
 597 0064 1269     		ldr	r2, [r2, #16]
 598 0066 22F44072 		bic	r2, r2, #768
 599 006a 1A61     		str	r2, [r3, #16]
 433:libs/STM32F4xx_StdPeriph_Driver/src/stm32f4xx_flash.c ****      FLASH->CR |= tmp_psize;
 600              		.loc 1 433 0
 601 006c 4FF47053 		mov	r3, #15360
 602 0070 C4F20203 		movt	r3, 16386
 603 0074 4FF47052 		mov	r2, #15360
 604 0078 C4F20202 		movt	r2, 16386
 605 007c 1169     		ldr	r1, [r2, #16]
 606 007e FA68     		ldr	r2, [r7, #12]
 607 0080 0A43     		orrs	r2, r2, r1
 608 0082 1A61     		str	r2, [r3, #16]
 434:libs/STM32F4xx_StdPeriph_Driver/src/stm32f4xx_flash.c ****      FLASH->CR |= FLASH_CR_MER;
 609              		.loc 1 434 0
 610 0084 4FF47053 		mov	r3, #15360
 611 0088 C4F20203 		movt	r3, 16386
 612 008c 4FF47052 		mov	r2, #15360
 613 0090 C4F20202 		movt	r2, 16386
 614 0094 1269     		ldr	r2, [r2, #16]
 615 0096 42F00402 		orr	r2, r2, #4
 616 009a 1A61     		str	r2, [r3, #16]
 435:libs/STM32F4xx_StdPeriph_Driver/src/stm32f4xx_flash.c ****      FLASH->CR |= FLASH_CR_STRT;
 617              		.loc 1 435 0
 618 009c 4FF47053 		mov	r3, #15360
 619 00a0 C4F20203 		movt	r3, 16386
 620 00a4 4FF47052 		mov	r2, #15360
 621 00a8 C4F20202 		movt	r2, 16386
 622 00ac 1269     		ldr	r2, [r2, #16]
 623 00ae 42F48032 		orr	r2, r2, #65536
 624 00b2 1A61     		str	r2, [r3, #16]
 436:libs/STM32F4xx_StdPeriph_Driver/src/stm32f4xx_flash.c ****     
 437:libs/STM32F4xx_StdPeriph_Driver/src/stm32f4xx_flash.c ****     /* Wait for last operation to be completed */
 438:libs/STM32F4xx_StdPeriph_Driver/src/stm32f4xx_flash.c ****     status = FLASH_WaitForLastOperation();
 625              		.loc 1 438 0
 626 00b4 FFF7FEFF 		bl	FLASH_WaitForLastOperation
 627 00b8 0346     		mov	r3, r0
 628 00ba FB72     		strb	r3, [r7, #11]
 439:libs/STM32F4xx_StdPeriph_Driver/src/stm32f4xx_flash.c **** 
 440:libs/STM32F4xx_StdPeriph_Driver/src/stm32f4xx_flash.c ****     /* if the erase operation is completed, disable the MER Bit */
 441:libs/STM32F4xx_StdPeriph_Driver/src/stm32f4xx_flash.c ****     FLASH->CR &= (~FLASH_CR_MER);
 629              		.loc 1 441 0
 630 00bc 4FF47053 		mov	r3, #15360
 631 00c0 C4F20203 		movt	r3, 16386
 632 00c4 4FF47052 		mov	r2, #15360
 633 00c8 C4F20202 		movt	r2, 16386
 634 00cc 1269     		ldr	r2, [r2, #16]
 635 00ce 22F00402 		bic	r2, r2, #4
 636 00d2 1A61     		str	r2, [r3, #16]
 637              	.L27:
 442:libs/STM32F4xx_StdPeriph_Driver/src/stm32f4xx_flash.c **** 
 443:libs/STM32F4xx_StdPeriph_Driver/src/stm32f4xx_flash.c ****   }   
 444:libs/STM32F4xx_StdPeriph_Driver/src/stm32f4xx_flash.c ****   /* Return the Erase Status */
 445:libs/STM32F4xx_StdPeriph_Driver/src/stm32f4xx_flash.c ****   return status;
 638              		.loc 1 445 0
 639 00d4 FB7A     		ldrb	r3, [r7, #11]	@ zero_extendqisi2
 446:libs/STM32F4xx_StdPeriph_Driver/src/stm32f4xx_flash.c **** }
 640              		.loc 1 446 0
 641 00d6 1846     		mov	r0, r3
 642 00d8 07F11007 		add	r7, r7, #16
 643 00dc BD46     		mov	sp, r7
 644 00de 80BD     		pop	{r7, pc}
 645              		.cfi_endproc
 646              	.LFE119:
 648              		.section	.text.FLASH_ProgramDoubleWord,"ax",%progbits
 649              		.align	2
 650              		.global	FLASH_ProgramDoubleWord
 651              		.thumb
 652              		.thumb_func
 654              	FLASH_ProgramDoubleWord:
 655              	.LFB120:
 447:libs/STM32F4xx_StdPeriph_Driver/src/stm32f4xx_flash.c **** 
 448:libs/STM32F4xx_StdPeriph_Driver/src/stm32f4xx_flash.c **** /**
 449:libs/STM32F4xx_StdPeriph_Driver/src/stm32f4xx_flash.c ****   * @brief  Programs a double word (64-bit) at a specified address.
 450:libs/STM32F4xx_StdPeriph_Driver/src/stm32f4xx_flash.c ****   * @note   This function must be used when the device voltage range is from
 451:libs/STM32F4xx_StdPeriph_Driver/src/stm32f4xx_flash.c ****   *         2.7V to 3.6V and an External Vpp is present.           
 452:libs/STM32F4xx_StdPeriph_Driver/src/stm32f4xx_flash.c ****   * @param  Address: specifies the address to be programmed.
 453:libs/STM32F4xx_StdPeriph_Driver/src/stm32f4xx_flash.c ****   * @param  Data: specifies the data to be programmed.
 454:libs/STM32F4xx_StdPeriph_Driver/src/stm32f4xx_flash.c ****   * @retval FLASH Status: The returned value can be: FLASH_BUSY, FLASH_ERROR_PROGRAM,
 455:libs/STM32F4xx_StdPeriph_Driver/src/stm32f4xx_flash.c ****   *                       FLASH_ERROR_WRP, FLASH_ERROR_OPERATION or FLASH_COMPLETE.
 456:libs/STM32F4xx_StdPeriph_Driver/src/stm32f4xx_flash.c ****   */
 457:libs/STM32F4xx_StdPeriph_Driver/src/stm32f4xx_flash.c **** FLASH_Status FLASH_ProgramDoubleWord(uint32_t Address, uint64_t Data)
 458:libs/STM32F4xx_StdPeriph_Driver/src/stm32f4xx_flash.c **** {
 656              		.loc 1 458 0
 657              		.cfi_startproc
 658              		@ args = 0, pretend = 0, frame = 24
 659              		@ frame_needed = 1, uses_anonymous_args = 0
 660 0000 80B5     		push	{r7, lr}
 661              	.LCFI26:
 662              		.cfi_def_cfa_offset 8
 663              		.cfi_offset 14, -4
 664              		.cfi_offset 7, -8
 665 0002 86B0     		sub	sp, sp, #24
 666              	.LCFI27:
 667              		.cfi_def_cfa_offset 32
 668 0004 00AF     		add	r7, sp, #0
 669              	.LCFI28:
 670              		.cfi_def_cfa_register 7
 671 0006 F860     		str	r0, [r7, #12]
 672 0008 C7E90023 		strd	r2, [r7]
 459:libs/STM32F4xx_StdPeriph_Driver/src/stm32f4xx_flash.c ****   FLASH_Status status = FLASH_COMPLETE;
 673              		.loc 1 459 0
 674 000c 4FF00803 		mov	r3, #8
 675 0010 FB75     		strb	r3, [r7, #23]
 460:libs/STM32F4xx_StdPeriph_Driver/src/stm32f4xx_flash.c **** 
 461:libs/STM32F4xx_StdPeriph_Driver/src/stm32f4xx_flash.c ****   /* Check the parameters */
 462:libs/STM32F4xx_StdPeriph_Driver/src/stm32f4xx_flash.c ****   assert_param(IS_FLASH_ADDRESS(Address));
 463:libs/STM32F4xx_StdPeriph_Driver/src/stm32f4xx_flash.c **** 
 464:libs/STM32F4xx_StdPeriph_Driver/src/stm32f4xx_flash.c ****   /* Wait for last operation to be completed */
 465:libs/STM32F4xx_StdPeriph_Driver/src/stm32f4xx_flash.c ****   status = FLASH_WaitForLastOperation();
 676              		.loc 1 465 0
 677 0012 FFF7FEFF 		bl	FLASH_WaitForLastOperation
 678 0016 0346     		mov	r3, r0
 679 0018 FB75     		strb	r3, [r7, #23]
 466:libs/STM32F4xx_StdPeriph_Driver/src/stm32f4xx_flash.c ****   
 467:libs/STM32F4xx_StdPeriph_Driver/src/stm32f4xx_flash.c ****   if(status == FLASH_COMPLETE)
 680              		.loc 1 467 0
 681 001a FB7D     		ldrb	r3, [r7, #23]	@ zero_extendqisi2
 682 001c 082B     		cmp	r3, #8
 683 001e 38D1     		bne	.L29
 468:libs/STM32F4xx_StdPeriph_Driver/src/stm32f4xx_flash.c ****   {
 469:libs/STM32F4xx_StdPeriph_Driver/src/stm32f4xx_flash.c ****     /* if the previous operation is completed, proceed to program the new data */
 470:libs/STM32F4xx_StdPeriph_Driver/src/stm32f4xx_flash.c ****     FLASH->CR &= CR_PSIZE_MASK;
 684              		.loc 1 470 0
 685 0020 4FF47053 		mov	r3, #15360
 686 0024 C4F20203 		movt	r3, 16386
 687 0028 4FF47052 		mov	r2, #15360
 688 002c C4F20202 		movt	r2, 16386
 689 0030 1269     		ldr	r2, [r2, #16]
 690 0032 22F44072 		bic	r2, r2, #768
 691 0036 1A61     		str	r2, [r3, #16]
 471:libs/STM32F4xx_StdPeriph_Driver/src/stm32f4xx_flash.c ****     FLASH->CR |= FLASH_PSIZE_DOUBLE_WORD;
 692              		.loc 1 471 0
 693 0038 4FF47053 		mov	r3, #15360
 694 003c C4F20203 		movt	r3, 16386
 695 0040 4FF47052 		mov	r2, #15360
 696 0044 C4F20202 		movt	r2, 16386
 697 0048 1269     		ldr	r2, [r2, #16]
 698 004a 42F44072 		orr	r2, r2, #768
 699 004e 1A61     		str	r2, [r3, #16]
 472:libs/STM32F4xx_StdPeriph_Driver/src/stm32f4xx_flash.c ****     FLASH->CR |= FLASH_CR_PG;
 700              		.loc 1 472 0
 701 0050 4FF47053 		mov	r3, #15360
 702 0054 C4F20203 		movt	r3, 16386
 703 0058 4FF47052 		mov	r2, #15360
 704 005c C4F20202 		movt	r2, 16386
 705 0060 1269     		ldr	r2, [r2, #16]
 706 0062 42F00102 		orr	r2, r2, #1
 707 0066 1A61     		str	r2, [r3, #16]
 473:libs/STM32F4xx_StdPeriph_Driver/src/stm32f4xx_flash.c ****   
 474:libs/STM32F4xx_StdPeriph_Driver/src/stm32f4xx_flash.c ****     *(__IO uint64_t*)Address = Data;
 708              		.loc 1 474 0
 709 0068 F968     		ldr	r1, [r7, #12]
 710 006a D7E90023 		ldrd	r2, [r7]
 711 006e C1E90023 		strd	r2, [r1]
 475:libs/STM32F4xx_StdPeriph_Driver/src/stm32f4xx_flash.c ****         
 476:libs/STM32F4xx_StdPeriph_Driver/src/stm32f4xx_flash.c ****     /* Wait for last operation to be completed */
 477:libs/STM32F4xx_StdPeriph_Driver/src/stm32f4xx_flash.c ****     status = FLASH_WaitForLastOperation();
 712              		.loc 1 477 0
 713 0072 FFF7FEFF 		bl	FLASH_WaitForLastOperation
 714 0076 0346     		mov	r3, r0
 715 0078 FB75     		strb	r3, [r7, #23]
 478:libs/STM32F4xx_StdPeriph_Driver/src/stm32f4xx_flash.c **** 
 479:libs/STM32F4xx_StdPeriph_Driver/src/stm32f4xx_flash.c ****     /* if the program operation is completed, disable the PG Bit */
 480:libs/STM32F4xx_StdPeriph_Driver/src/stm32f4xx_flash.c ****     FLASH->CR &= (~FLASH_CR_PG);
 716              		.loc 1 480 0
 717 007a 4FF47053 		mov	r3, #15360
 718 007e C4F20203 		movt	r3, 16386
 719 0082 4FF47052 		mov	r2, #15360
 720 0086 C4F20202 		movt	r2, 16386
 721 008a 1269     		ldr	r2, [r2, #16]
 722 008c 22F00102 		bic	r2, r2, #1
 723 0090 1A61     		str	r2, [r3, #16]
 724              	.L29:
 481:libs/STM32F4xx_StdPeriph_Driver/src/stm32f4xx_flash.c ****   } 
 482:libs/STM32F4xx_StdPeriph_Driver/src/stm32f4xx_flash.c ****   /* Return the Program Status */
 483:libs/STM32F4xx_StdPeriph_Driver/src/stm32f4xx_flash.c ****   return status;
 725              		.loc 1 483 0
 726 0092 FB7D     		ldrb	r3, [r7, #23]	@ zero_extendqisi2
 484:libs/STM32F4xx_StdPeriph_Driver/src/stm32f4xx_flash.c **** }
 727              		.loc 1 484 0
 728 0094 1846     		mov	r0, r3
 729 0096 07F11807 		add	r7, r7, #24
 730 009a BD46     		mov	sp, r7
 731 009c 80BD     		pop	{r7, pc}
 732              		.cfi_endproc
 733              	.LFE120:
 735 009e 00BF     		.section	.text.FLASH_ProgramWord,"ax",%progbits
 736              		.align	2
 737              		.global	FLASH_ProgramWord
 738              		.thumb
 739              		.thumb_func
 741              	FLASH_ProgramWord:
 742              	.LFB121:
 485:libs/STM32F4xx_StdPeriph_Driver/src/stm32f4xx_flash.c **** 
 486:libs/STM32F4xx_StdPeriph_Driver/src/stm32f4xx_flash.c **** /**
 487:libs/STM32F4xx_StdPeriph_Driver/src/stm32f4xx_flash.c ****   * @brief  Programs a word (32-bit) at a specified address.
 488:libs/STM32F4xx_StdPeriph_Driver/src/stm32f4xx_flash.c ****   * @param  Address: specifies the address to be programmed.
 489:libs/STM32F4xx_StdPeriph_Driver/src/stm32f4xx_flash.c ****   *         This parameter can be any address in Program memory zone or in OTP zone.  
 490:libs/STM32F4xx_StdPeriph_Driver/src/stm32f4xx_flash.c ****   * @note   This function must be used when the device voltage range is from 2.7V to 3.6V. 
 491:libs/STM32F4xx_StdPeriph_Driver/src/stm32f4xx_flash.c ****   * @param  Data: specifies the data to be programmed.
 492:libs/STM32F4xx_StdPeriph_Driver/src/stm32f4xx_flash.c ****   * @retval FLASH Status: The returned value can be: FLASH_BUSY, FLASH_ERROR_PROGRAM,
 493:libs/STM32F4xx_StdPeriph_Driver/src/stm32f4xx_flash.c ****   *                       FLASH_ERROR_WRP, FLASH_ERROR_OPERATION or FLASH_COMPLETE.
 494:libs/STM32F4xx_StdPeriph_Driver/src/stm32f4xx_flash.c ****   */
 495:libs/STM32F4xx_StdPeriph_Driver/src/stm32f4xx_flash.c **** FLASH_Status FLASH_ProgramWord(uint32_t Address, uint32_t Data)
 496:libs/STM32F4xx_StdPeriph_Driver/src/stm32f4xx_flash.c **** {
 743              		.loc 1 496 0
 744              		.cfi_startproc
 745              		@ args = 0, pretend = 0, frame = 16
 746              		@ frame_needed = 1, uses_anonymous_args = 0
 747 0000 80B5     		push	{r7, lr}
 748              	.LCFI29:
 749              		.cfi_def_cfa_offset 8
 750              		.cfi_offset 14, -4
 751              		.cfi_offset 7, -8
 752 0002 84B0     		sub	sp, sp, #16
 753              	.LCFI30:
 754              		.cfi_def_cfa_offset 24
 755 0004 00AF     		add	r7, sp, #0
 756              	.LCFI31:
 757              		.cfi_def_cfa_register 7
 758 0006 7860     		str	r0, [r7, #4]
 759 0008 3960     		str	r1, [r7, #0]
 497:libs/STM32F4xx_StdPeriph_Driver/src/stm32f4xx_flash.c ****   FLASH_Status status = FLASH_COMPLETE;
 760              		.loc 1 497 0
 761 000a 4FF00803 		mov	r3, #8
 762 000e FB73     		strb	r3, [r7, #15]
 498:libs/STM32F4xx_StdPeriph_Driver/src/stm32f4xx_flash.c **** 
 499:libs/STM32F4xx_StdPeriph_Driver/src/stm32f4xx_flash.c ****   /* Check the parameters */
 500:libs/STM32F4xx_StdPeriph_Driver/src/stm32f4xx_flash.c ****   assert_param(IS_FLASH_ADDRESS(Address));
 501:libs/STM32F4xx_StdPeriph_Driver/src/stm32f4xx_flash.c **** 
 502:libs/STM32F4xx_StdPeriph_Driver/src/stm32f4xx_flash.c ****   /* Wait for last operation to be completed */
 503:libs/STM32F4xx_StdPeriph_Driver/src/stm32f4xx_flash.c ****   status = FLASH_WaitForLastOperation();
 763              		.loc 1 503 0
 764 0010 FFF7FEFF 		bl	FLASH_WaitForLastOperation
 765 0014 0346     		mov	r3, r0
 766 0016 FB73     		strb	r3, [r7, #15]
 504:libs/STM32F4xx_StdPeriph_Driver/src/stm32f4xx_flash.c ****   
 505:libs/STM32F4xx_StdPeriph_Driver/src/stm32f4xx_flash.c ****   if(status == FLASH_COMPLETE)
 767              		.loc 1 505 0
 768 0018 FB7B     		ldrb	r3, [r7, #15]	@ zero_extendqisi2
 769 001a 082B     		cmp	r3, #8
 770 001c 36D1     		bne	.L31
 506:libs/STM32F4xx_StdPeriph_Driver/src/stm32f4xx_flash.c ****   {
 507:libs/STM32F4xx_StdPeriph_Driver/src/stm32f4xx_flash.c ****     /* if the previous operation is completed, proceed to program the new data */
 508:libs/STM32F4xx_StdPeriph_Driver/src/stm32f4xx_flash.c ****     FLASH->CR &= CR_PSIZE_MASK;
 771              		.loc 1 508 0
 772 001e 4FF47053 		mov	r3, #15360
 773 0022 C4F20203 		movt	r3, 16386
 774 0026 4FF47052 		mov	r2, #15360
 775 002a C4F20202 		movt	r2, 16386
 776 002e 1269     		ldr	r2, [r2, #16]
 777 0030 22F44072 		bic	r2, r2, #768
 778 0034 1A61     		str	r2, [r3, #16]
 509:libs/STM32F4xx_StdPeriph_Driver/src/stm32f4xx_flash.c ****     FLASH->CR |= FLASH_PSIZE_WORD;
 779              		.loc 1 509 0
 780 0036 4FF47053 		mov	r3, #15360
 781 003a C4F20203 		movt	r3, 16386
 782 003e 4FF47052 		mov	r2, #15360
 783 0042 C4F20202 		movt	r2, 16386
 784 0046 1269     		ldr	r2, [r2, #16]
 785 0048 42F40072 		orr	r2, r2, #512
 786 004c 1A61     		str	r2, [r3, #16]
 510:libs/STM32F4xx_StdPeriph_Driver/src/stm32f4xx_flash.c ****     FLASH->CR |= FLASH_CR_PG;
 787              		.loc 1 510 0
 788 004e 4FF47053 		mov	r3, #15360
 789 0052 C4F20203 		movt	r3, 16386
 790 0056 4FF47052 		mov	r2, #15360
 791 005a C4F20202 		movt	r2, 16386
 792 005e 1269     		ldr	r2, [r2, #16]
 793 0060 42F00102 		orr	r2, r2, #1
 794 0064 1A61     		str	r2, [r3, #16]
 511:libs/STM32F4xx_StdPeriph_Driver/src/stm32f4xx_flash.c ****   
 512:libs/STM32F4xx_StdPeriph_Driver/src/stm32f4xx_flash.c ****     *(__IO uint32_t*)Address = Data;
 795              		.loc 1 512 0
 796 0066 7B68     		ldr	r3, [r7, #4]
 797 0068 3A68     		ldr	r2, [r7, #0]
 798 006a 1A60     		str	r2, [r3, #0]
 513:libs/STM32F4xx_StdPeriph_Driver/src/stm32f4xx_flash.c ****         
 514:libs/STM32F4xx_StdPeriph_Driver/src/stm32f4xx_flash.c ****     /* Wait for last operation to be completed */
 515:libs/STM32F4xx_StdPeriph_Driver/src/stm32f4xx_flash.c ****     status = FLASH_WaitForLastOperation();
 799              		.loc 1 515 0
 800 006c FFF7FEFF 		bl	FLASH_WaitForLastOperation
 801 0070 0346     		mov	r3, r0
 802 0072 FB73     		strb	r3, [r7, #15]
 516:libs/STM32F4xx_StdPeriph_Driver/src/stm32f4xx_flash.c **** 
 517:libs/STM32F4xx_StdPeriph_Driver/src/stm32f4xx_flash.c ****     /* if the program operation is completed, disable the PG Bit */
 518:libs/STM32F4xx_StdPeriph_Driver/src/stm32f4xx_flash.c ****     FLASH->CR &= (~FLASH_CR_PG);
 803              		.loc 1 518 0
 804 0074 4FF47053 		mov	r3, #15360
 805 0078 C4F20203 		movt	r3, 16386
 806 007c 4FF47052 		mov	r2, #15360
 807 0080 C4F20202 		movt	r2, 16386
 808 0084 1269     		ldr	r2, [r2, #16]
 809 0086 22F00102 		bic	r2, r2, #1
 810 008a 1A61     		str	r2, [r3, #16]
 811              	.L31:
 519:libs/STM32F4xx_StdPeriph_Driver/src/stm32f4xx_flash.c ****   } 
 520:libs/STM32F4xx_StdPeriph_Driver/src/stm32f4xx_flash.c ****   /* Return the Program Status */
 521:libs/STM32F4xx_StdPeriph_Driver/src/stm32f4xx_flash.c ****   return status;
 812              		.loc 1 521 0
 813 008c FB7B     		ldrb	r3, [r7, #15]	@ zero_extendqisi2
 522:libs/STM32F4xx_StdPeriph_Driver/src/stm32f4xx_flash.c **** }
 814              		.loc 1 522 0
 815 008e 1846     		mov	r0, r3
 816 0090 07F11007 		add	r7, r7, #16
 817 0094 BD46     		mov	sp, r7
 818 0096 80BD     		pop	{r7, pc}
 819              		.cfi_endproc
 820              	.LFE121:
 822              		.section	.text.FLASH_ProgramHalfWord,"ax",%progbits
 823              		.align	2
 824              		.global	FLASH_ProgramHalfWord
 825              		.thumb
 826              		.thumb_func
 828              	FLASH_ProgramHalfWord:
 829              	.LFB122:
 523:libs/STM32F4xx_StdPeriph_Driver/src/stm32f4xx_flash.c **** 
 524:libs/STM32F4xx_StdPeriph_Driver/src/stm32f4xx_flash.c **** /**
 525:libs/STM32F4xx_StdPeriph_Driver/src/stm32f4xx_flash.c ****   * @brief  Programs a half word (16-bit) at a specified address. 
 526:libs/STM32F4xx_StdPeriph_Driver/src/stm32f4xx_flash.c ****   * @note   This function must be used when the device voltage range is from 2.1V to 3.6V.         
 527:libs/STM32F4xx_StdPeriph_Driver/src/stm32f4xx_flash.c ****   * @param  Address: specifies the address to be programmed.
 528:libs/STM32F4xx_StdPeriph_Driver/src/stm32f4xx_flash.c ****   *         This parameter can be any address in Program memory zone or in OTP zone.  
 529:libs/STM32F4xx_StdPeriph_Driver/src/stm32f4xx_flash.c ****   * @param  Data: specifies the data to be programmed.
 530:libs/STM32F4xx_StdPeriph_Driver/src/stm32f4xx_flash.c ****   * @retval FLASH Status: The returned value can be: FLASH_BUSY, FLASH_ERROR_PROGRAM,
 531:libs/STM32F4xx_StdPeriph_Driver/src/stm32f4xx_flash.c ****   *                       FLASH_ERROR_WRP, FLASH_ERROR_OPERATION or FLASH_COMPLETE.
 532:libs/STM32F4xx_StdPeriph_Driver/src/stm32f4xx_flash.c ****   */
 533:libs/STM32F4xx_StdPeriph_Driver/src/stm32f4xx_flash.c **** FLASH_Status FLASH_ProgramHalfWord(uint32_t Address, uint16_t Data)
 534:libs/STM32F4xx_StdPeriph_Driver/src/stm32f4xx_flash.c **** {
 830              		.loc 1 534 0
 831              		.cfi_startproc
 832              		@ args = 0, pretend = 0, frame = 16
 833              		@ frame_needed = 1, uses_anonymous_args = 0
 834 0000 80B5     		push	{r7, lr}
 835              	.LCFI32:
 836              		.cfi_def_cfa_offset 8
 837              		.cfi_offset 14, -4
 838              		.cfi_offset 7, -8
 839 0002 84B0     		sub	sp, sp, #16
 840              	.LCFI33:
 841              		.cfi_def_cfa_offset 24
 842 0004 00AF     		add	r7, sp, #0
 843              	.LCFI34:
 844              		.cfi_def_cfa_register 7
 845 0006 7860     		str	r0, [r7, #4]
 846 0008 0B46     		mov	r3, r1
 847 000a 7B80     		strh	r3, [r7, #2]	@ movhi
 535:libs/STM32F4xx_StdPeriph_Driver/src/stm32f4xx_flash.c ****   FLASH_Status status = FLASH_COMPLETE;
 848              		.loc 1 535 0
 849 000c 4FF00803 		mov	r3, #8
 850 0010 FB73     		strb	r3, [r7, #15]
 536:libs/STM32F4xx_StdPeriph_Driver/src/stm32f4xx_flash.c **** 
 537:libs/STM32F4xx_StdPeriph_Driver/src/stm32f4xx_flash.c ****   /* Check the parameters */
 538:libs/STM32F4xx_StdPeriph_Driver/src/stm32f4xx_flash.c ****   assert_param(IS_FLASH_ADDRESS(Address));
 539:libs/STM32F4xx_StdPeriph_Driver/src/stm32f4xx_flash.c **** 
 540:libs/STM32F4xx_StdPeriph_Driver/src/stm32f4xx_flash.c ****   /* Wait for last operation to be completed */
 541:libs/STM32F4xx_StdPeriph_Driver/src/stm32f4xx_flash.c ****   status = FLASH_WaitForLastOperation();
 851              		.loc 1 541 0
 852 0012 FFF7FEFF 		bl	FLASH_WaitForLastOperation
 853 0016 0346     		mov	r3, r0
 854 0018 FB73     		strb	r3, [r7, #15]
 542:libs/STM32F4xx_StdPeriph_Driver/src/stm32f4xx_flash.c ****   
 543:libs/STM32F4xx_StdPeriph_Driver/src/stm32f4xx_flash.c ****   if(status == FLASH_COMPLETE)
 855              		.loc 1 543 0
 856 001a FB7B     		ldrb	r3, [r7, #15]	@ zero_extendqisi2
 857 001c 082B     		cmp	r3, #8
 858 001e 36D1     		bne	.L33
 544:libs/STM32F4xx_StdPeriph_Driver/src/stm32f4xx_flash.c ****   {
 545:libs/STM32F4xx_StdPeriph_Driver/src/stm32f4xx_flash.c ****     /* if the previous operation is completed, proceed to program the new data */
 546:libs/STM32F4xx_StdPeriph_Driver/src/stm32f4xx_flash.c ****     FLASH->CR &= CR_PSIZE_MASK;
 859              		.loc 1 546 0
 860 0020 4FF47053 		mov	r3, #15360
 861 0024 C4F20203 		movt	r3, 16386
 862 0028 4FF47052 		mov	r2, #15360
 863 002c C4F20202 		movt	r2, 16386
 864 0030 1269     		ldr	r2, [r2, #16]
 865 0032 22F44072 		bic	r2, r2, #768
 866 0036 1A61     		str	r2, [r3, #16]
 547:libs/STM32F4xx_StdPeriph_Driver/src/stm32f4xx_flash.c ****     FLASH->CR |= FLASH_PSIZE_HALF_WORD;
 867              		.loc 1 547 0
 868 0038 4FF47053 		mov	r3, #15360
 869 003c C4F20203 		movt	r3, 16386
 870 0040 4FF47052 		mov	r2, #15360
 871 0044 C4F20202 		movt	r2, 16386
 872 0048 1269     		ldr	r2, [r2, #16]
 873 004a 42F48072 		orr	r2, r2, #256
 874 004e 1A61     		str	r2, [r3, #16]
 548:libs/STM32F4xx_StdPeriph_Driver/src/stm32f4xx_flash.c ****     FLASH->CR |= FLASH_CR_PG;
 875              		.loc 1 548 0
 876 0050 4FF47053 		mov	r3, #15360
 877 0054 C4F20203 		movt	r3, 16386
 878 0058 4FF47052 		mov	r2, #15360
 879 005c C4F20202 		movt	r2, 16386
 880 0060 1269     		ldr	r2, [r2, #16]
 881 0062 42F00102 		orr	r2, r2, #1
 882 0066 1A61     		str	r2, [r3, #16]
 549:libs/STM32F4xx_StdPeriph_Driver/src/stm32f4xx_flash.c ****   
 550:libs/STM32F4xx_StdPeriph_Driver/src/stm32f4xx_flash.c ****     *(__IO uint16_t*)Address = Data;
 883              		.loc 1 550 0
 884 0068 7B68     		ldr	r3, [r7, #4]
 885 006a 7A88     		ldrh	r2, [r7, #2]	@ movhi
 886 006c 1A80     		strh	r2, [r3, #0]	@ movhi
 551:libs/STM32F4xx_StdPeriph_Driver/src/stm32f4xx_flash.c ****         
 552:libs/STM32F4xx_StdPeriph_Driver/src/stm32f4xx_flash.c ****     /* Wait for last operation to be completed */
 553:libs/STM32F4xx_StdPeriph_Driver/src/stm32f4xx_flash.c ****     status = FLASH_WaitForLastOperation();
 887              		.loc 1 553 0
 888 006e FFF7FEFF 		bl	FLASH_WaitForLastOperation
 889 0072 0346     		mov	r3, r0
 890 0074 FB73     		strb	r3, [r7, #15]
 554:libs/STM32F4xx_StdPeriph_Driver/src/stm32f4xx_flash.c **** 
 555:libs/STM32F4xx_StdPeriph_Driver/src/stm32f4xx_flash.c ****     /* if the program operation is completed, disable the PG Bit */
 556:libs/STM32F4xx_StdPeriph_Driver/src/stm32f4xx_flash.c ****     FLASH->CR &= (~FLASH_CR_PG);
 891              		.loc 1 556 0
 892 0076 4FF47053 		mov	r3, #15360
 893 007a C4F20203 		movt	r3, 16386
 894 007e 4FF47052 		mov	r2, #15360
 895 0082 C4F20202 		movt	r2, 16386
 896 0086 1269     		ldr	r2, [r2, #16]
 897 0088 22F00102 		bic	r2, r2, #1
 898 008c 1A61     		str	r2, [r3, #16]
 899              	.L33:
 557:libs/STM32F4xx_StdPeriph_Driver/src/stm32f4xx_flash.c ****   } 
 558:libs/STM32F4xx_StdPeriph_Driver/src/stm32f4xx_flash.c ****   /* Return the Program Status */
 559:libs/STM32F4xx_StdPeriph_Driver/src/stm32f4xx_flash.c ****   return status;
 900              		.loc 1 559 0
 901 008e FB7B     		ldrb	r3, [r7, #15]	@ zero_extendqisi2
 560:libs/STM32F4xx_StdPeriph_Driver/src/stm32f4xx_flash.c **** }
 902              		.loc 1 560 0
 903 0090 1846     		mov	r0, r3
 904 0092 07F11007 		add	r7, r7, #16
 905 0096 BD46     		mov	sp, r7
 906 0098 80BD     		pop	{r7, pc}
 907              		.cfi_endproc
 908              	.LFE122:
 910 009a 00BF     		.section	.text.FLASH_ProgramByte,"ax",%progbits
 911              		.align	2
 912              		.global	FLASH_ProgramByte
 913              		.thumb
 914              		.thumb_func
 916              	FLASH_ProgramByte:
 917              	.LFB123:
 561:libs/STM32F4xx_StdPeriph_Driver/src/stm32f4xx_flash.c **** 
 562:libs/STM32F4xx_StdPeriph_Driver/src/stm32f4xx_flash.c **** /**
 563:libs/STM32F4xx_StdPeriph_Driver/src/stm32f4xx_flash.c ****   * @brief  Programs a byte (8-bit) at a specified address.
 564:libs/STM32F4xx_StdPeriph_Driver/src/stm32f4xx_flash.c ****   * @note   This function can be used within all the device supply voltage ranges.               
 565:libs/STM32F4xx_StdPeriph_Driver/src/stm32f4xx_flash.c ****   * @param  Address: specifies the address to be programmed.
 566:libs/STM32F4xx_StdPeriph_Driver/src/stm32f4xx_flash.c ****   *         This parameter can be any address in Program memory zone or in OTP zone.  
 567:libs/STM32F4xx_StdPeriph_Driver/src/stm32f4xx_flash.c ****   * @param  Data: specifies the data to be programmed.
 568:libs/STM32F4xx_StdPeriph_Driver/src/stm32f4xx_flash.c ****   * @retval FLASH Status: The returned value can be: FLASH_BUSY, FLASH_ERROR_PROGRAM,
 569:libs/STM32F4xx_StdPeriph_Driver/src/stm32f4xx_flash.c ****   *                       FLASH_ERROR_WRP, FLASH_ERROR_OPERATION or FLASH_COMPLETE.
 570:libs/STM32F4xx_StdPeriph_Driver/src/stm32f4xx_flash.c ****   */
 571:libs/STM32F4xx_StdPeriph_Driver/src/stm32f4xx_flash.c **** FLASH_Status FLASH_ProgramByte(uint32_t Address, uint8_t Data)
 572:libs/STM32F4xx_StdPeriph_Driver/src/stm32f4xx_flash.c **** {
 918              		.loc 1 572 0
 919              		.cfi_startproc
 920              		@ args = 0, pretend = 0, frame = 16
 921              		@ frame_needed = 1, uses_anonymous_args = 0
 922 0000 80B5     		push	{r7, lr}
 923              	.LCFI35:
 924              		.cfi_def_cfa_offset 8
 925              		.cfi_offset 14, -4
 926              		.cfi_offset 7, -8
 927 0002 84B0     		sub	sp, sp, #16
 928              	.LCFI36:
 929              		.cfi_def_cfa_offset 24
 930 0004 00AF     		add	r7, sp, #0
 931              	.LCFI37:
 932              		.cfi_def_cfa_register 7
 933 0006 7860     		str	r0, [r7, #4]
 934 0008 0B46     		mov	r3, r1
 935 000a FB70     		strb	r3, [r7, #3]
 573:libs/STM32F4xx_StdPeriph_Driver/src/stm32f4xx_flash.c ****   FLASH_Status status = FLASH_COMPLETE;
 936              		.loc 1 573 0
 937 000c 4FF00803 		mov	r3, #8
 938 0010 FB73     		strb	r3, [r7, #15]
 574:libs/STM32F4xx_StdPeriph_Driver/src/stm32f4xx_flash.c **** 
 575:libs/STM32F4xx_StdPeriph_Driver/src/stm32f4xx_flash.c ****   /* Check the parameters */
 576:libs/STM32F4xx_StdPeriph_Driver/src/stm32f4xx_flash.c ****   assert_param(IS_FLASH_ADDRESS(Address));
 577:libs/STM32F4xx_StdPeriph_Driver/src/stm32f4xx_flash.c **** 
 578:libs/STM32F4xx_StdPeriph_Driver/src/stm32f4xx_flash.c ****   /* Wait for last operation to be completed */
 579:libs/STM32F4xx_StdPeriph_Driver/src/stm32f4xx_flash.c ****   status = FLASH_WaitForLastOperation();
 939              		.loc 1 579 0
 940 0012 FFF7FEFF 		bl	FLASH_WaitForLastOperation
 941 0016 0346     		mov	r3, r0
 942 0018 FB73     		strb	r3, [r7, #15]
 580:libs/STM32F4xx_StdPeriph_Driver/src/stm32f4xx_flash.c ****   
 581:libs/STM32F4xx_StdPeriph_Driver/src/stm32f4xx_flash.c ****   if(status == FLASH_COMPLETE)
 943              		.loc 1 581 0
 944 001a FB7B     		ldrb	r3, [r7, #15]	@ zero_extendqisi2
 945 001c 082B     		cmp	r3, #8
 946 001e 34D1     		bne	.L35
 582:libs/STM32F4xx_StdPeriph_Driver/src/stm32f4xx_flash.c ****   {
 583:libs/STM32F4xx_StdPeriph_Driver/src/stm32f4xx_flash.c ****     /* if the previous operation is completed, proceed to program the new data */
 584:libs/STM32F4xx_StdPeriph_Driver/src/stm32f4xx_flash.c ****     FLASH->CR &= CR_PSIZE_MASK;
 947              		.loc 1 584 0
 948 0020 4FF47053 		mov	r3, #15360
 949 0024 C4F20203 		movt	r3, 16386
 950 0028 4FF47052 		mov	r2, #15360
 951 002c C4F20202 		movt	r2, 16386
 952 0030 1269     		ldr	r2, [r2, #16]
 953 0032 22F44072 		bic	r2, r2, #768
 954 0036 1A61     		str	r2, [r3, #16]
 585:libs/STM32F4xx_StdPeriph_Driver/src/stm32f4xx_flash.c ****     FLASH->CR |= FLASH_PSIZE_BYTE;
 955              		.loc 1 585 0
 956 0038 4FF47053 		mov	r3, #15360
 957 003c C4F20203 		movt	r3, 16386
 958 0040 4FF47052 		mov	r2, #15360
 959 0044 C4F20202 		movt	r2, 16386
 960 0048 1269     		ldr	r2, [r2, #16]
 961 004a 1A61     		str	r2, [r3, #16]
 586:libs/STM32F4xx_StdPeriph_Driver/src/stm32f4xx_flash.c ****     FLASH->CR |= FLASH_CR_PG;
 962              		.loc 1 586 0
 963 004c 4FF47053 		mov	r3, #15360
 964 0050 C4F20203 		movt	r3, 16386
 965 0054 4FF47052 		mov	r2, #15360
 966 0058 C4F20202 		movt	r2, 16386
 967 005c 1269     		ldr	r2, [r2, #16]
 968 005e 42F00102 		orr	r2, r2, #1
 969 0062 1A61     		str	r2, [r3, #16]
 587:libs/STM32F4xx_StdPeriph_Driver/src/stm32f4xx_flash.c ****   
 588:libs/STM32F4xx_StdPeriph_Driver/src/stm32f4xx_flash.c ****     *(__IO uint8_t*)Address = Data;
 970              		.loc 1 588 0
 971 0064 7B68     		ldr	r3, [r7, #4]
 972 0066 FA78     		ldrb	r2, [r7, #3]
 973 0068 1A70     		strb	r2, [r3, #0]
 589:libs/STM32F4xx_StdPeriph_Driver/src/stm32f4xx_flash.c ****         
 590:libs/STM32F4xx_StdPeriph_Driver/src/stm32f4xx_flash.c ****     /* Wait for last operation to be completed */
 591:libs/STM32F4xx_StdPeriph_Driver/src/stm32f4xx_flash.c ****     status = FLASH_WaitForLastOperation();
 974              		.loc 1 591 0
 975 006a FFF7FEFF 		bl	FLASH_WaitForLastOperation
 976 006e 0346     		mov	r3, r0
 977 0070 FB73     		strb	r3, [r7, #15]
 592:libs/STM32F4xx_StdPeriph_Driver/src/stm32f4xx_flash.c **** 
 593:libs/STM32F4xx_StdPeriph_Driver/src/stm32f4xx_flash.c ****     /* if the program operation is completed, disable the PG Bit */
 594:libs/STM32F4xx_StdPeriph_Driver/src/stm32f4xx_flash.c ****     FLASH->CR &= (~FLASH_CR_PG);
 978              		.loc 1 594 0
 979 0072 4FF47053 		mov	r3, #15360
 980 0076 C4F20203 		movt	r3, 16386
 981 007a 4FF47052 		mov	r2, #15360
 982 007e C4F20202 		movt	r2, 16386
 983 0082 1269     		ldr	r2, [r2, #16]
 984 0084 22F00102 		bic	r2, r2, #1
 985 0088 1A61     		str	r2, [r3, #16]
 986              	.L35:
 595:libs/STM32F4xx_StdPeriph_Driver/src/stm32f4xx_flash.c ****   } 
 596:libs/STM32F4xx_StdPeriph_Driver/src/stm32f4xx_flash.c **** 
 597:libs/STM32F4xx_StdPeriph_Driver/src/stm32f4xx_flash.c ****   /* Return the Program Status */
 598:libs/STM32F4xx_StdPeriph_Driver/src/stm32f4xx_flash.c ****   return status;
 987              		.loc 1 598 0
 988 008a FB7B     		ldrb	r3, [r7, #15]	@ zero_extendqisi2
 599:libs/STM32F4xx_StdPeriph_Driver/src/stm32f4xx_flash.c **** }
 989              		.loc 1 599 0
 990 008c 1846     		mov	r0, r3
 991 008e 07F11007 		add	r7, r7, #16
 992 0092 BD46     		mov	sp, r7
 993 0094 80BD     		pop	{r7, pc}
 994              		.cfi_endproc
 995              	.LFE123:
 997 0096 00BF     		.section	.text.FLASH_OB_Unlock,"ax",%progbits
 998              		.align	2
 999              		.global	FLASH_OB_Unlock
 1000              		.thumb
 1001              		.thumb_func
 1003              	FLASH_OB_Unlock:
 1004              	.LFB124:
 600:libs/STM32F4xx_StdPeriph_Driver/src/stm32f4xx_flash.c **** 
 601:libs/STM32F4xx_StdPeriph_Driver/src/stm32f4xx_flash.c **** /**
 602:libs/STM32F4xx_StdPeriph_Driver/src/stm32f4xx_flash.c ****   * @}
 603:libs/STM32F4xx_StdPeriph_Driver/src/stm32f4xx_flash.c ****   */
 604:libs/STM32F4xx_StdPeriph_Driver/src/stm32f4xx_flash.c **** 
 605:libs/STM32F4xx_StdPeriph_Driver/src/stm32f4xx_flash.c **** /** @defgroup FLASH_Group3 Option Bytes Programming functions
 606:libs/STM32F4xx_StdPeriph_Driver/src/stm32f4xx_flash.c ****  *  @brief   Option Bytes Programming functions 
 607:libs/STM32F4xx_StdPeriph_Driver/src/stm32f4xx_flash.c ****  *
 608:libs/STM32F4xx_StdPeriph_Driver/src/stm32f4xx_flash.c **** @verbatim   
 609:libs/STM32F4xx_StdPeriph_Driver/src/stm32f4xx_flash.c ****  ===============================================================================
 610:libs/STM32F4xx_StdPeriph_Driver/src/stm32f4xx_flash.c ****                         Option Bytes Programming functions
 611:libs/STM32F4xx_StdPeriph_Driver/src/stm32f4xx_flash.c ****  ===============================================================================  
 612:libs/STM32F4xx_StdPeriph_Driver/src/stm32f4xx_flash.c ****  
 613:libs/STM32F4xx_StdPeriph_Driver/src/stm32f4xx_flash.c ****    This group includes the following functions:
 614:libs/STM32F4xx_StdPeriph_Driver/src/stm32f4xx_flash.c ****    - void FLASH_OB_Unlock(void)
 615:libs/STM32F4xx_StdPeriph_Driver/src/stm32f4xx_flash.c ****    - void FLASH_OB_Lock(void)
 616:libs/STM32F4xx_StdPeriph_Driver/src/stm32f4xx_flash.c ****    - void FLASH_OB_WRPConfig(uint32_t OB_WRP, FunctionalState NewState)
 617:libs/STM32F4xx_StdPeriph_Driver/src/stm32f4xx_flash.c ****    - void FLASH_OB_RDPConfig(uint8_t OB_RDP)
 618:libs/STM32F4xx_StdPeriph_Driver/src/stm32f4xx_flash.c ****    - void FLASH_OB_UserConfig(uint8_t OB_IWDG, uint8_t OB_STOP, uint8_t OB_STDBY)
 619:libs/STM32F4xx_StdPeriph_Driver/src/stm32f4xx_flash.c ****    - void FLASH_OB_BORConfig(uint8_t OB_BOR)
 620:libs/STM32F4xx_StdPeriph_Driver/src/stm32f4xx_flash.c ****    - FLASH_Status FLASH_ProgramOTP(uint32_t Address, uint32_t Data)							
 621:libs/STM32F4xx_StdPeriph_Driver/src/stm32f4xx_flash.c ****    - FLASH_Status FLASH_OB_Launch(void)
 622:libs/STM32F4xx_StdPeriph_Driver/src/stm32f4xx_flash.c ****    - uint32_t FLASH_OB_GetUser(void)						
 623:libs/STM32F4xx_StdPeriph_Driver/src/stm32f4xx_flash.c ****    - uint8_t FLASH_OB_GetWRP(void)						
 624:libs/STM32F4xx_StdPeriph_Driver/src/stm32f4xx_flash.c ****    - uint8_t FLASH_OB_GetRDP(void)							
 625:libs/STM32F4xx_StdPeriph_Driver/src/stm32f4xx_flash.c ****    - uint8_t FLASH_OB_GetBOR(void)
 626:libs/STM32F4xx_StdPeriph_Driver/src/stm32f4xx_flash.c ****    
 627:libs/STM32F4xx_StdPeriph_Driver/src/stm32f4xx_flash.c ****    Any operation of erase or program should follow these steps:
 628:libs/STM32F4xx_StdPeriph_Driver/src/stm32f4xx_flash.c ****    1. Call the FLASH_OB_Unlock() function to enable the FLASH option control register access
 629:libs/STM32F4xx_StdPeriph_Driver/src/stm32f4xx_flash.c **** 
 630:libs/STM32F4xx_StdPeriph_Driver/src/stm32f4xx_flash.c ****    2. Call one or several functions to program the desired Option Bytes:
 631:libs/STM32F4xx_StdPeriph_Driver/src/stm32f4xx_flash.c ****       - void FLASH_OB_WRPConfig(uint32_t OB_WRP, FunctionalState NewState) => to Enable/Disable 
 632:libs/STM32F4xx_StdPeriph_Driver/src/stm32f4xx_flash.c ****         the desired sector write protection
 633:libs/STM32F4xx_StdPeriph_Driver/src/stm32f4xx_flash.c ****       - void FLASH_OB_RDPConfig(uint8_t OB_RDP) => to set the desired read Protection Level
 634:libs/STM32F4xx_StdPeriph_Driver/src/stm32f4xx_flash.c ****       - void FLASH_OB_UserConfig(uint8_t OB_IWDG, uint8_t OB_STOP, uint8_t OB_STDBY) => to configur
 635:libs/STM32F4xx_StdPeriph_Driver/src/stm32f4xx_flash.c ****         the user Option Bytes.
 636:libs/STM32F4xx_StdPeriph_Driver/src/stm32f4xx_flash.c ****       - void FLASH_OB_BORConfig(uint8_t OB_BOR) => to set the BOR Level 			 
 637:libs/STM32F4xx_StdPeriph_Driver/src/stm32f4xx_flash.c **** 
 638:libs/STM32F4xx_StdPeriph_Driver/src/stm32f4xx_flash.c ****    3. Once all needed Option Bytes to be programmed are correctly written, call the
 639:libs/STM32F4xx_StdPeriph_Driver/src/stm32f4xx_flash.c ****       FLASH_OB_Launch() function to launch the Option Bytes programming process.
 640:libs/STM32F4xx_StdPeriph_Driver/src/stm32f4xx_flash.c ****      
 641:libs/STM32F4xx_StdPeriph_Driver/src/stm32f4xx_flash.c ****      @note When changing the IWDG mode from HW to SW or from SW to HW, a system 
 642:libs/STM32F4xx_StdPeriph_Driver/src/stm32f4xx_flash.c ****            reset is needed to make the change effective.  
 643:libs/STM32F4xx_StdPeriph_Driver/src/stm32f4xx_flash.c **** 
 644:libs/STM32F4xx_StdPeriph_Driver/src/stm32f4xx_flash.c ****    4. Call the FLASH_OB_Lock() function to disable the FLASH option control register
 645:libs/STM32F4xx_StdPeriph_Driver/src/stm32f4xx_flash.c ****       access (recommended to protect the Option Bytes against possible unwanted operations)
 646:libs/STM32F4xx_StdPeriph_Driver/src/stm32f4xx_flash.c ****     
 647:libs/STM32F4xx_StdPeriph_Driver/src/stm32f4xx_flash.c **** @endverbatim
 648:libs/STM32F4xx_StdPeriph_Driver/src/stm32f4xx_flash.c ****   * @{
 649:libs/STM32F4xx_StdPeriph_Driver/src/stm32f4xx_flash.c ****   */
 650:libs/STM32F4xx_StdPeriph_Driver/src/stm32f4xx_flash.c **** 
 651:libs/STM32F4xx_StdPeriph_Driver/src/stm32f4xx_flash.c **** /**
 652:libs/STM32F4xx_StdPeriph_Driver/src/stm32f4xx_flash.c ****   * @brief  Unlocks the FLASH Option Control Registers access.
 653:libs/STM32F4xx_StdPeriph_Driver/src/stm32f4xx_flash.c ****   * @param  None
 654:libs/STM32F4xx_StdPeriph_Driver/src/stm32f4xx_flash.c ****   * @retval None
 655:libs/STM32F4xx_StdPeriph_Driver/src/stm32f4xx_flash.c ****   */
 656:libs/STM32F4xx_StdPeriph_Driver/src/stm32f4xx_flash.c **** void FLASH_OB_Unlock(void)
 657:libs/STM32F4xx_StdPeriph_Driver/src/stm32f4xx_flash.c **** {
 1005              		.loc 1 657 0
 1006              		.cfi_startproc
 1007              		@ args = 0, pretend = 0, frame = 0
 1008              		@ frame_needed = 1, uses_anonymous_args = 0
 1009              		@ link register save eliminated.
 1010 0000 80B4     		push	{r7}
 1011              	.LCFI38:
 1012              		.cfi_def_cfa_offset 4
 1013              		.cfi_offset 7, -4
 1014 0002 00AF     		add	r7, sp, #0
 1015              	.LCFI39:
 1016              		.cfi_def_cfa_register 7
 658:libs/STM32F4xx_StdPeriph_Driver/src/stm32f4xx_flash.c ****   if((FLASH->OPTCR & FLASH_OPTCR_OPTLOCK) != RESET)
 1017              		.loc 1 658 0
 1018 0004 4FF47053 		mov	r3, #15360
 1019 0008 C4F20203 		movt	r3, 16386
 1020 000c 5B69     		ldr	r3, [r3, #20]
 1021 000e 03F00103 		and	r3, r3, #1
 1022 0012 DBB2     		uxtb	r3, r3
 1023 0014 002B     		cmp	r3, #0
 1024 0016 11D0     		beq	.L36
 659:libs/STM32F4xx_StdPeriph_Driver/src/stm32f4xx_flash.c ****   {
 660:libs/STM32F4xx_StdPeriph_Driver/src/stm32f4xx_flash.c ****     /* Authorizes the Option Byte register programming */
 661:libs/STM32F4xx_StdPeriph_Driver/src/stm32f4xx_flash.c ****     FLASH->OPTKEYR = FLASH_OPT_KEY1;
 1025              		.loc 1 661 0
 1026 0018 4FF47053 		mov	r3, #15360
 1027 001c C4F20203 		movt	r3, 16386
 1028 0020 42F63B22 		movw	r2, #10811
 1029 0024 C0F61902 		movt	r2, 2073
 1030 0028 9A60     		str	r2, [r3, #8]
 662:libs/STM32F4xx_StdPeriph_Driver/src/stm32f4xx_flash.c ****     FLASH->OPTKEYR = FLASH_OPT_KEY2;
 1031              		.loc 1 662 0
 1032 002a 4FF47053 		mov	r3, #15360
 1033 002e C4F20203 		movt	r3, 16386
 1034 0032 46F67F62 		movw	r2, #28287
 1035 0036 C4F65D42 		movt	r2, 19549
 1036 003a 9A60     		str	r2, [r3, #8]
 1037              	.L36:
 663:libs/STM32F4xx_StdPeriph_Driver/src/stm32f4xx_flash.c ****   }  
 664:libs/STM32F4xx_StdPeriph_Driver/src/stm32f4xx_flash.c **** }
 1038              		.loc 1 664 0
 1039 003c BD46     		mov	sp, r7
 1040 003e 80BC     		pop	{r7}
 1041 0040 7047     		bx	lr
 1042              		.cfi_endproc
 1043              	.LFE124:
 1045 0042 00BF     		.section	.text.FLASH_OB_Lock,"ax",%progbits
 1046              		.align	2
 1047              		.global	FLASH_OB_Lock
 1048              		.thumb
 1049              		.thumb_func
 1051              	FLASH_OB_Lock:
 1052              	.LFB125:
 665:libs/STM32F4xx_StdPeriph_Driver/src/stm32f4xx_flash.c **** 
 666:libs/STM32F4xx_StdPeriph_Driver/src/stm32f4xx_flash.c **** /**
 667:libs/STM32F4xx_StdPeriph_Driver/src/stm32f4xx_flash.c ****   * @brief  Locks the FLASH Option Control Registers access.
 668:libs/STM32F4xx_StdPeriph_Driver/src/stm32f4xx_flash.c ****   * @param  None
 669:libs/STM32F4xx_StdPeriph_Driver/src/stm32f4xx_flash.c ****   * @retval None
 670:libs/STM32F4xx_StdPeriph_Driver/src/stm32f4xx_flash.c ****   */
 671:libs/STM32F4xx_StdPeriph_Driver/src/stm32f4xx_flash.c **** void FLASH_OB_Lock(void)
 672:libs/STM32F4xx_StdPeriph_Driver/src/stm32f4xx_flash.c **** {
 1053              		.loc 1 672 0
 1054              		.cfi_startproc
 1055              		@ args = 0, pretend = 0, frame = 0
 1056              		@ frame_needed = 1, uses_anonymous_args = 0
 1057              		@ link register save eliminated.
 1058 0000 80B4     		push	{r7}
 1059              	.LCFI40:
 1060              		.cfi_def_cfa_offset 4
 1061              		.cfi_offset 7, -4
 1062 0002 00AF     		add	r7, sp, #0
 1063              	.LCFI41:
 1064              		.cfi_def_cfa_register 7
 673:libs/STM32F4xx_StdPeriph_Driver/src/stm32f4xx_flash.c ****   /* Set the OPTLOCK Bit to lock the FLASH Option Byte Registers access */
 674:libs/STM32F4xx_StdPeriph_Driver/src/stm32f4xx_flash.c ****   FLASH->OPTCR |= FLASH_OPTCR_OPTLOCK;
 1065              		.loc 1 674 0
 1066 0004 4FF47053 		mov	r3, #15360
 1067 0008 C4F20203 		movt	r3, 16386
 1068 000c 4FF47052 		mov	r2, #15360
 1069 0010 C4F20202 		movt	r2, 16386
 1070 0014 5269     		ldr	r2, [r2, #20]
 1071 0016 42F00102 		orr	r2, r2, #1
 1072 001a 5A61     		str	r2, [r3, #20]
 675:libs/STM32F4xx_StdPeriph_Driver/src/stm32f4xx_flash.c **** }
 1073              		.loc 1 675 0
 1074 001c BD46     		mov	sp, r7
 1075 001e 80BC     		pop	{r7}
 1076 0020 7047     		bx	lr
 1077              		.cfi_endproc
 1078              	.LFE125:
 1080 0022 00BF     		.section	.text.FLASH_OB_WRPConfig,"ax",%progbits
 1081              		.align	2
 1082              		.global	FLASH_OB_WRPConfig
 1083              		.thumb
 1084              		.thumb_func
 1086              	FLASH_OB_WRPConfig:
 1087              	.LFB126:
 676:libs/STM32F4xx_StdPeriph_Driver/src/stm32f4xx_flash.c **** 
 677:libs/STM32F4xx_StdPeriph_Driver/src/stm32f4xx_flash.c **** /**
 678:libs/STM32F4xx_StdPeriph_Driver/src/stm32f4xx_flash.c ****   * @brief  Enables or disables the write protection of the desired sectors
 679:libs/STM32F4xx_StdPeriph_Driver/src/stm32f4xx_flash.c ****   * @param  OB_WRP: specifies the sector(s) to be write protected or unprotected.
 680:libs/STM32F4xx_StdPeriph_Driver/src/stm32f4xx_flash.c ****   *          This parameter can be one of the following values:
 681:libs/STM32F4xx_StdPeriph_Driver/src/stm32f4xx_flash.c ****   *            @arg OB_WRP: A value between OB_WRP_Sector0 and OB_WRP_Sector11                     
 682:libs/STM32F4xx_StdPeriph_Driver/src/stm32f4xx_flash.c ****   *            @arg OB_WRP_Sector_All
 683:libs/STM32F4xx_StdPeriph_Driver/src/stm32f4xx_flash.c ****   * @param  Newstate: new state of the Write Protection.
 684:libs/STM32F4xx_StdPeriph_Driver/src/stm32f4xx_flash.c ****   *          This parameter can be: ENABLE or DISABLE.
 685:libs/STM32F4xx_StdPeriph_Driver/src/stm32f4xx_flash.c ****   * @retval None  
 686:libs/STM32F4xx_StdPeriph_Driver/src/stm32f4xx_flash.c ****   */
 687:libs/STM32F4xx_StdPeriph_Driver/src/stm32f4xx_flash.c **** void FLASH_OB_WRPConfig(uint32_t OB_WRP, FunctionalState NewState)
 688:libs/STM32F4xx_StdPeriph_Driver/src/stm32f4xx_flash.c **** { 
 1088              		.loc 1 688 0
 1089              		.cfi_startproc
 1090              		@ args = 0, pretend = 0, frame = 16
 1091              		@ frame_needed = 1, uses_anonymous_args = 0
 1092 0000 80B5     		push	{r7, lr}
 1093              	.LCFI42:
 1094              		.cfi_def_cfa_offset 8
 1095              		.cfi_offset 14, -4
 1096              		.cfi_offset 7, -8
 1097 0002 84B0     		sub	sp, sp, #16
 1098              	.LCFI43:
 1099              		.cfi_def_cfa_offset 24
 1100 0004 00AF     		add	r7, sp, #0
 1101              	.LCFI44:
 1102              		.cfi_def_cfa_register 7
 1103 0006 7860     		str	r0, [r7, #4]
 1104 0008 0B46     		mov	r3, r1
 1105 000a FB70     		strb	r3, [r7, #3]
 689:libs/STM32F4xx_StdPeriph_Driver/src/stm32f4xx_flash.c ****   FLASH_Status status = FLASH_COMPLETE;
 1106              		.loc 1 689 0
 1107 000c 4FF00803 		mov	r3, #8
 1108 0010 FB73     		strb	r3, [r7, #15]
 690:libs/STM32F4xx_StdPeriph_Driver/src/stm32f4xx_flash.c ****   
 691:libs/STM32F4xx_StdPeriph_Driver/src/stm32f4xx_flash.c ****   /* Check the parameters */
 692:libs/STM32F4xx_StdPeriph_Driver/src/stm32f4xx_flash.c ****   assert_param(IS_OB_WRP(OB_WRP));
 693:libs/STM32F4xx_StdPeriph_Driver/src/stm32f4xx_flash.c ****   assert_param(IS_FUNCTIONAL_STATE(NewState));
 694:libs/STM32F4xx_StdPeriph_Driver/src/stm32f4xx_flash.c ****     
 695:libs/STM32F4xx_StdPeriph_Driver/src/stm32f4xx_flash.c ****   status = FLASH_WaitForLastOperation();
 1109              		.loc 1 695 0
 1110 0012 FFF7FEFF 		bl	FLASH_WaitForLastOperation
 1111 0016 0346     		mov	r3, r0
 1112 0018 FB73     		strb	r3, [r7, #15]
 696:libs/STM32F4xx_StdPeriph_Driver/src/stm32f4xx_flash.c **** 
 697:libs/STM32F4xx_StdPeriph_Driver/src/stm32f4xx_flash.c ****   if(status == FLASH_COMPLETE)
 1113              		.loc 1 697 0
 1114 001a FB7B     		ldrb	r3, [r7, #15]	@ zero_extendqisi2
 1115 001c 082B     		cmp	r3, #8
 1116 001e 24D1     		bne	.L39
 698:libs/STM32F4xx_StdPeriph_Driver/src/stm32f4xx_flash.c ****   { 
 699:libs/STM32F4xx_StdPeriph_Driver/src/stm32f4xx_flash.c ****     if(NewState != DISABLE)
 1117              		.loc 1 699 0
 1118 0020 FB78     		ldrb	r3, [r7, #3]	@ zero_extendqisi2
 1119 0022 002B     		cmp	r3, #0
 1120 0024 12D0     		beq	.L41
 700:libs/STM32F4xx_StdPeriph_Driver/src/stm32f4xx_flash.c ****     {
 701:libs/STM32F4xx_StdPeriph_Driver/src/stm32f4xx_flash.c ****       *(__IO uint16_t*)OPTCR_BYTE2_ADDRESS &= (~OB_WRP);
 1121              		.loc 1 701 0
 1122 0026 43F61643 		movw	r3, #15382
 1123 002a C4F20203 		movt	r3, 16386
 1124 002e 43F61642 		movw	r2, #15382
 1125 0032 C4F20202 		movt	r2, 16386
 1126 0036 1288     		ldrh	r2, [r2, #0]	@ movhi
 1127 0038 91B2     		uxth	r1, r2
 1128 003a 7A68     		ldr	r2, [r7, #4]
 1129 003c 92B2     		uxth	r2, r2
 1130 003e 6FEA0202 		mvn	r2, r2
 1131 0042 92B2     		uxth	r2, r2
 1132 0044 0A40     		ands	r2, r2, r1
 1133 0046 92B2     		uxth	r2, r2
 1134 0048 1A80     		strh	r2, [r3, #0]	@ movhi
 1135 004a 0EE0     		b	.L39
 1136              	.L41:
 702:libs/STM32F4xx_StdPeriph_Driver/src/stm32f4xx_flash.c ****     }
 703:libs/STM32F4xx_StdPeriph_Driver/src/stm32f4xx_flash.c ****     else
 704:libs/STM32F4xx_StdPeriph_Driver/src/stm32f4xx_flash.c ****     {
 705:libs/STM32F4xx_StdPeriph_Driver/src/stm32f4xx_flash.c ****       *(__IO uint16_t*)OPTCR_BYTE2_ADDRESS |= (uint16_t)OB_WRP;
 1137              		.loc 1 705 0
 1138 004c 43F61643 		movw	r3, #15382
 1139 0050 C4F20203 		movt	r3, 16386
 1140 0054 43F61642 		movw	r2, #15382
 1141 0058 C4F20202 		movt	r2, 16386
 1142 005c 1288     		ldrh	r2, [r2, #0]	@ movhi
 1143 005e 91B2     		uxth	r1, r2
 1144 0060 7A68     		ldr	r2, [r7, #4]
 1145 0062 92B2     		uxth	r2, r2
 1146 0064 0A43     		orrs	r2, r2, r1
 1147 0066 92B2     		uxth	r2, r2
 1148 0068 1A80     		strh	r2, [r3, #0]	@ movhi
 1149              	.L39:
 706:libs/STM32F4xx_StdPeriph_Driver/src/stm32f4xx_flash.c ****     }
 707:libs/STM32F4xx_StdPeriph_Driver/src/stm32f4xx_flash.c ****   }
 708:libs/STM32F4xx_StdPeriph_Driver/src/stm32f4xx_flash.c **** }
 1150              		.loc 1 708 0
 1151 006a 07F11007 		add	r7, r7, #16
 1152 006e BD46     		mov	sp, r7
 1153 0070 80BD     		pop	{r7, pc}
 1154              		.cfi_endproc
 1155              	.LFE126:
 1157 0072 00BF     		.section	.text.FLASH_OB_RDPConfig,"ax",%progbits
 1158              		.align	2
 1159              		.global	FLASH_OB_RDPConfig
 1160              		.thumb
 1161              		.thumb_func
 1163              	FLASH_OB_RDPConfig:
 1164              	.LFB127:
 709:libs/STM32F4xx_StdPeriph_Driver/src/stm32f4xx_flash.c **** 
 710:libs/STM32F4xx_StdPeriph_Driver/src/stm32f4xx_flash.c **** /**
 711:libs/STM32F4xx_StdPeriph_Driver/src/stm32f4xx_flash.c ****   * @brief  Sets the read protection level.
 712:libs/STM32F4xx_StdPeriph_Driver/src/stm32f4xx_flash.c ****   * @param  OB_RDP: specifies the read protection level.
 713:libs/STM32F4xx_StdPeriph_Driver/src/stm32f4xx_flash.c ****   *          This parameter can be one of the following values:
 714:libs/STM32F4xx_StdPeriph_Driver/src/stm32f4xx_flash.c ****   *            @arg OB_RDP_Level_0: No protection
 715:libs/STM32F4xx_StdPeriph_Driver/src/stm32f4xx_flash.c ****   *            @arg OB_RDP_Level_1: Read protection of the memory
 716:libs/STM32F4xx_StdPeriph_Driver/src/stm32f4xx_flash.c ****   *            @arg OB_RDP_Level_2: Full chip protection
 717:libs/STM32F4xx_StdPeriph_Driver/src/stm32f4xx_flash.c ****   *   
 718:libs/STM32F4xx_StdPeriph_Driver/src/stm32f4xx_flash.c ****   * !!!Warning!!! When enabling OB_RDP level 2 it's no more possible to go back to level 1 or 0
 719:libs/STM32F4xx_StdPeriph_Driver/src/stm32f4xx_flash.c ****   *    
 720:libs/STM32F4xx_StdPeriph_Driver/src/stm32f4xx_flash.c ****   * @retval None
 721:libs/STM32F4xx_StdPeriph_Driver/src/stm32f4xx_flash.c ****   */
 722:libs/STM32F4xx_StdPeriph_Driver/src/stm32f4xx_flash.c **** void FLASH_OB_RDPConfig(uint8_t OB_RDP)
 723:libs/STM32F4xx_StdPeriph_Driver/src/stm32f4xx_flash.c **** {
 1165              		.loc 1 723 0
 1166              		.cfi_startproc
 1167              		@ args = 0, pretend = 0, frame = 16
 1168              		@ frame_needed = 1, uses_anonymous_args = 0
 1169 0000 80B5     		push	{r7, lr}
 1170              	.LCFI45:
 1171              		.cfi_def_cfa_offset 8
 1172              		.cfi_offset 14, -4
 1173              		.cfi_offset 7, -8
 1174 0002 84B0     		sub	sp, sp, #16
 1175              	.LCFI46:
 1176              		.cfi_def_cfa_offset 24
 1177 0004 00AF     		add	r7, sp, #0
 1178              	.LCFI47:
 1179              		.cfi_def_cfa_register 7
 1180 0006 0346     		mov	r3, r0
 1181 0008 FB71     		strb	r3, [r7, #7]
 724:libs/STM32F4xx_StdPeriph_Driver/src/stm32f4xx_flash.c ****   FLASH_Status status = FLASH_COMPLETE;
 1182              		.loc 1 724 0
 1183 000a 4FF00803 		mov	r3, #8
 1184 000e FB73     		strb	r3, [r7, #15]
 725:libs/STM32F4xx_StdPeriph_Driver/src/stm32f4xx_flash.c **** 
 726:libs/STM32F4xx_StdPeriph_Driver/src/stm32f4xx_flash.c ****   /* Check the parameters */
 727:libs/STM32F4xx_StdPeriph_Driver/src/stm32f4xx_flash.c ****   assert_param(IS_OB_RDP(OB_RDP));
 728:libs/STM32F4xx_StdPeriph_Driver/src/stm32f4xx_flash.c **** 
 729:libs/STM32F4xx_StdPeriph_Driver/src/stm32f4xx_flash.c ****   status = FLASH_WaitForLastOperation();
 1185              		.loc 1 729 0
 1186 0010 FFF7FEFF 		bl	FLASH_WaitForLastOperation
 1187 0014 0346     		mov	r3, r0
 1188 0016 FB73     		strb	r3, [r7, #15]
 730:libs/STM32F4xx_StdPeriph_Driver/src/stm32f4xx_flash.c **** 
 731:libs/STM32F4xx_StdPeriph_Driver/src/stm32f4xx_flash.c ****   if(status == FLASH_COMPLETE)
 1189              		.loc 1 731 0
 1190 0018 FB7B     		ldrb	r3, [r7, #15]	@ zero_extendqisi2
 1191 001a 082B     		cmp	r3, #8
 1192 001c 05D1     		bne	.L42
 732:libs/STM32F4xx_StdPeriph_Driver/src/stm32f4xx_flash.c ****   {
 733:libs/STM32F4xx_StdPeriph_Driver/src/stm32f4xx_flash.c ****     *(__IO uint8_t*)OPTCR_BYTE1_ADDRESS = OB_RDP;
 1193              		.loc 1 733 0
 1194 001e 43F61543 		movw	r3, #15381
 1195 0022 C4F20203 		movt	r3, 16386
 1196 0026 FA79     		ldrb	r2, [r7, #7]
 1197 0028 1A70     		strb	r2, [r3, #0]
 1198              	.L42:
 734:libs/STM32F4xx_StdPeriph_Driver/src/stm32f4xx_flash.c **** 
 735:libs/STM32F4xx_StdPeriph_Driver/src/stm32f4xx_flash.c ****   }
 736:libs/STM32F4xx_StdPeriph_Driver/src/stm32f4xx_flash.c **** }
 1199              		.loc 1 736 0
 1200 002a 07F11007 		add	r7, r7, #16
 1201 002e BD46     		mov	sp, r7
 1202 0030 80BD     		pop	{r7, pc}
 1203              		.cfi_endproc
 1204              	.LFE127:
 1206 0032 00BF     		.section	.text.FLASH_OB_UserConfig,"ax",%progbits
 1207              		.align	2
 1208              		.global	FLASH_OB_UserConfig
 1209              		.thumb
 1210              		.thumb_func
 1212              	FLASH_OB_UserConfig:
 1213              	.LFB128:
 737:libs/STM32F4xx_StdPeriph_Driver/src/stm32f4xx_flash.c **** 
 738:libs/STM32F4xx_StdPeriph_Driver/src/stm32f4xx_flash.c **** /**
 739:libs/STM32F4xx_StdPeriph_Driver/src/stm32f4xx_flash.c ****   * @brief  Programs the FLASH User Option Byte: IWDG_SW / RST_STOP / RST_STDBY.    
 740:libs/STM32F4xx_StdPeriph_Driver/src/stm32f4xx_flash.c ****   * @param  OB_IWDG: Selects the IWDG mode
 741:libs/STM32F4xx_StdPeriph_Driver/src/stm32f4xx_flash.c ****   *          This parameter can be one of the following values:
 742:libs/STM32F4xx_StdPeriph_Driver/src/stm32f4xx_flash.c ****   *            @arg OB_IWDG_SW: Software IWDG selected
 743:libs/STM32F4xx_StdPeriph_Driver/src/stm32f4xx_flash.c ****   *            @arg OB_IWDG_HW: Hardware IWDG selected
 744:libs/STM32F4xx_StdPeriph_Driver/src/stm32f4xx_flash.c ****   * @param  OB_STOP: Reset event when entering STOP mode.
 745:libs/STM32F4xx_StdPeriph_Driver/src/stm32f4xx_flash.c ****   *          This parameter  can be one of the following values:
 746:libs/STM32F4xx_StdPeriph_Driver/src/stm32f4xx_flash.c ****   *            @arg OB_STOP_NoRST: No reset generated when entering in STOP
 747:libs/STM32F4xx_StdPeriph_Driver/src/stm32f4xx_flash.c ****   *            @arg OB_STOP_RST: Reset generated when entering in STOP
 748:libs/STM32F4xx_StdPeriph_Driver/src/stm32f4xx_flash.c ****   * @param  OB_STDBY: Reset event when entering Standby mode.
 749:libs/STM32F4xx_StdPeriph_Driver/src/stm32f4xx_flash.c ****   *          This parameter  can be one of the following values:
 750:libs/STM32F4xx_StdPeriph_Driver/src/stm32f4xx_flash.c ****   *            @arg OB_STDBY_NoRST: No reset generated when entering in STANDBY
 751:libs/STM32F4xx_StdPeriph_Driver/src/stm32f4xx_flash.c ****   *            @arg OB_STDBY_RST: Reset generated when entering in STANDBY
 752:libs/STM32F4xx_StdPeriph_Driver/src/stm32f4xx_flash.c ****   * @retval None
 753:libs/STM32F4xx_StdPeriph_Driver/src/stm32f4xx_flash.c ****   */
 754:libs/STM32F4xx_StdPeriph_Driver/src/stm32f4xx_flash.c **** void FLASH_OB_UserConfig(uint8_t OB_IWDG, uint8_t OB_STOP, uint8_t OB_STDBY)
 755:libs/STM32F4xx_StdPeriph_Driver/src/stm32f4xx_flash.c **** {
 1214              		.loc 1 755 0
 1215              		.cfi_startproc
 1216              		@ args = 0, pretend = 0, frame = 16
 1217              		@ frame_needed = 1, uses_anonymous_args = 0
 1218 0000 80B5     		push	{r7, lr}
 1219              	.LCFI48:
 1220              		.cfi_def_cfa_offset 8
 1221              		.cfi_offset 14, -4
 1222              		.cfi_offset 7, -8
 1223 0002 84B0     		sub	sp, sp, #16
 1224              	.LCFI49:
 1225              		.cfi_def_cfa_offset 24
 1226 0004 00AF     		add	r7, sp, #0
 1227              	.LCFI50:
 1228              		.cfi_def_cfa_register 7
 1229 0006 1346     		mov	r3, r2
 1230 0008 0246     		mov	r2, r0
 1231 000a FA71     		strb	r2, [r7, #7]
 1232 000c 0A46     		mov	r2, r1
 1233 000e BA71     		strb	r2, [r7, #6]
 1234 0010 7B71     		strb	r3, [r7, #5]
 756:libs/STM32F4xx_StdPeriph_Driver/src/stm32f4xx_flash.c ****   uint8_t optiontmp = 0xFF;
 1235              		.loc 1 756 0
 1236 0012 4FF0FF03 		mov	r3, #255
 1237 0016 FB73     		strb	r3, [r7, #15]
 757:libs/STM32F4xx_StdPeriph_Driver/src/stm32f4xx_flash.c ****   FLASH_Status status = FLASH_COMPLETE; 
 1238              		.loc 1 757 0
 1239 0018 4FF00803 		mov	r3, #8
 1240 001c BB73     		strb	r3, [r7, #14]
 758:libs/STM32F4xx_StdPeriph_Driver/src/stm32f4xx_flash.c **** 
 759:libs/STM32F4xx_StdPeriph_Driver/src/stm32f4xx_flash.c ****   /* Check the parameters */
 760:libs/STM32F4xx_StdPeriph_Driver/src/stm32f4xx_flash.c ****   assert_param(IS_OB_IWDG_SOURCE(OB_IWDG));
 761:libs/STM32F4xx_StdPeriph_Driver/src/stm32f4xx_flash.c ****   assert_param(IS_OB_STOP_SOURCE(OB_STOP));
 762:libs/STM32F4xx_StdPeriph_Driver/src/stm32f4xx_flash.c ****   assert_param(IS_OB_STDBY_SOURCE(OB_STDBY));
 763:libs/STM32F4xx_StdPeriph_Driver/src/stm32f4xx_flash.c **** 
 764:libs/STM32F4xx_StdPeriph_Driver/src/stm32f4xx_flash.c ****   /* Wait for last operation to be completed */
 765:libs/STM32F4xx_StdPeriph_Driver/src/stm32f4xx_flash.c ****   status = FLASH_WaitForLastOperation();
 1241              		.loc 1 765 0
 1242 001e FFF7FEFF 		bl	FLASH_WaitForLastOperation
 1243 0022 0346     		mov	r3, r0
 1244 0024 BB73     		strb	r3, [r7, #14]
 766:libs/STM32F4xx_StdPeriph_Driver/src/stm32f4xx_flash.c ****   
 767:libs/STM32F4xx_StdPeriph_Driver/src/stm32f4xx_flash.c ****   if(status == FLASH_COMPLETE)
 1245              		.loc 1 767 0
 1246 0026 BB7B     		ldrb	r3, [r7, #14]	@ zero_extendqisi2
 1247 0028 082B     		cmp	r3, #8
 1248 002a 17D1     		bne	.L44
 768:libs/STM32F4xx_StdPeriph_Driver/src/stm32f4xx_flash.c ****   { 
 769:libs/STM32F4xx_StdPeriph_Driver/src/stm32f4xx_flash.c ****     /* Mask OPTLOCK, OPTSTRT and BOR_LEV bits */
 770:libs/STM32F4xx_StdPeriph_Driver/src/stm32f4xx_flash.c ****     optiontmp =  (uint8_t)((*(__IO uint8_t *)OPTCR_BYTE0_ADDRESS) & (uint8_t)0x0F); 
 1249              		.loc 1 770 0
 1250 002c 43F61443 		movw	r3, #15380
 1251 0030 C4F20203 		movt	r3, 16386
 1252 0034 1B78     		ldrb	r3, [r3, #0]
 1253 0036 DBB2     		uxtb	r3, r3
 1254 0038 03F00F03 		and	r3, r3, #15
 1255 003c FB73     		strb	r3, [r7, #15]
 771:libs/STM32F4xx_StdPeriph_Driver/src/stm32f4xx_flash.c **** 
 772:libs/STM32F4xx_StdPeriph_Driver/src/stm32f4xx_flash.c ****     /* Update User Option Byte */
 773:libs/STM32F4xx_StdPeriph_Driver/src/stm32f4xx_flash.c ****     *(__IO uint8_t *)OPTCR_BYTE0_ADDRESS = OB_IWDG | (uint8_t)(OB_STDBY | (uint8_t)(OB_STOP | ((uin
 1256              		.loc 1 773 0
 1257 003e 43F61443 		movw	r3, #15380
 1258 0042 C4F20203 		movt	r3, 16386
 1259 0046 B979     		ldrb	r1, [r7, #6]
 1260 0048 FA7B     		ldrb	r2, [r7, #15]
 1261 004a 0A43     		orrs	r2, r2, r1
 1262 004c D1B2     		uxtb	r1, r2
 1263 004e 7A79     		ldrb	r2, [r7, #5]
 1264 0050 0A43     		orrs	r2, r2, r1
 1265 0052 D1B2     		uxtb	r1, r2
 1266 0054 FA79     		ldrb	r2, [r7, #7]
 1267 0056 0A43     		orrs	r2, r2, r1
 1268 0058 D2B2     		uxtb	r2, r2
 1269 005a 1A70     		strb	r2, [r3, #0]
 1270              	.L44:
 774:libs/STM32F4xx_StdPeriph_Driver/src/stm32f4xx_flash.c ****   }  
 775:libs/STM32F4xx_StdPeriph_Driver/src/stm32f4xx_flash.c **** }
 1271              		.loc 1 775 0
 1272 005c 07F11007 		add	r7, r7, #16
 1273 0060 BD46     		mov	sp, r7
 1274 0062 80BD     		pop	{r7, pc}
 1275              		.cfi_endproc
 1276              	.LFE128:
 1278              		.section	.text.FLASH_OB_BORConfig,"ax",%progbits
 1279              		.align	2
 1280              		.global	FLASH_OB_BORConfig
 1281              		.thumb
 1282              		.thumb_func
 1284              	FLASH_OB_BORConfig:
 1285              	.LFB129:
 776:libs/STM32F4xx_StdPeriph_Driver/src/stm32f4xx_flash.c **** 
 777:libs/STM32F4xx_StdPeriph_Driver/src/stm32f4xx_flash.c **** /**
 778:libs/STM32F4xx_StdPeriph_Driver/src/stm32f4xx_flash.c ****   * @brief  Sets the BOR Level. 
 779:libs/STM32F4xx_StdPeriph_Driver/src/stm32f4xx_flash.c ****   * @param  OB_BOR: specifies the Option Bytes BOR Reset Level.
 780:libs/STM32F4xx_StdPeriph_Driver/src/stm32f4xx_flash.c ****   *          This parameter can be one of the following values:
 781:libs/STM32F4xx_StdPeriph_Driver/src/stm32f4xx_flash.c ****   *            @arg OB_BOR_LEVEL3: Supply voltage ranges from 2.7 to 3.6 V
 782:libs/STM32F4xx_StdPeriph_Driver/src/stm32f4xx_flash.c ****   *            @arg OB_BOR_LEVEL2: Supply voltage ranges from 2.4 to 2.7 V
 783:libs/STM32F4xx_StdPeriph_Driver/src/stm32f4xx_flash.c ****   *            @arg OB_BOR_LEVEL1: Supply voltage ranges from 2.1 to 2.4 V
 784:libs/STM32F4xx_StdPeriph_Driver/src/stm32f4xx_flash.c ****   *            @arg OB_BOR_OFF: Supply voltage ranges from 1.62 to 2.1 V
 785:libs/STM32F4xx_StdPeriph_Driver/src/stm32f4xx_flash.c ****   * @retval None
 786:libs/STM32F4xx_StdPeriph_Driver/src/stm32f4xx_flash.c ****   */
 787:libs/STM32F4xx_StdPeriph_Driver/src/stm32f4xx_flash.c **** void FLASH_OB_BORConfig(uint8_t OB_BOR)
 788:libs/STM32F4xx_StdPeriph_Driver/src/stm32f4xx_flash.c **** {
 1286              		.loc 1 788 0
 1287              		.cfi_startproc
 1288              		@ args = 0, pretend = 0, frame = 8
 1289              		@ frame_needed = 1, uses_anonymous_args = 0
 1290              		@ link register save eliminated.
 1291 0000 80B4     		push	{r7}
 1292              	.LCFI51:
 1293              		.cfi_def_cfa_offset 4
 1294              		.cfi_offset 7, -4
 1295 0002 83B0     		sub	sp, sp, #12
 1296              	.LCFI52:
 1297              		.cfi_def_cfa_offset 16
 1298 0004 00AF     		add	r7, sp, #0
 1299              	.LCFI53:
 1300              		.cfi_def_cfa_register 7
 1301 0006 0346     		mov	r3, r0
 1302 0008 FB71     		strb	r3, [r7, #7]
 789:libs/STM32F4xx_StdPeriph_Driver/src/stm32f4xx_flash.c ****   /* Check the parameters */
 790:libs/STM32F4xx_StdPeriph_Driver/src/stm32f4xx_flash.c ****   assert_param(IS_OB_BOR(OB_BOR));
 791:libs/STM32F4xx_StdPeriph_Driver/src/stm32f4xx_flash.c **** 
 792:libs/STM32F4xx_StdPeriph_Driver/src/stm32f4xx_flash.c ****   /* Set the BOR Level */
 793:libs/STM32F4xx_StdPeriph_Driver/src/stm32f4xx_flash.c ****   *(__IO uint8_t *)OPTCR_BYTE0_ADDRESS &= (~FLASH_OPTCR_BOR_LEV);
 1303              		.loc 1 793 0
 1304 000a 43F61443 		movw	r3, #15380
 1305 000e C4F20203 		movt	r3, 16386
 1306 0012 43F61442 		movw	r2, #15380
 1307 0016 C4F20202 		movt	r2, 16386
 1308 001a 1278     		ldrb	r2, [r2, #0]
 1309 001c D2B2     		uxtb	r2, r2
 1310 001e 22F00C02 		bic	r2, r2, #12
 1311 0022 D2B2     		uxtb	r2, r2
 1312 0024 1A70     		strb	r2, [r3, #0]
 794:libs/STM32F4xx_StdPeriph_Driver/src/stm32f4xx_flash.c ****   *(__IO uint8_t *)OPTCR_BYTE0_ADDRESS |= OB_BOR;
 1313              		.loc 1 794 0
 1314 0026 43F61443 		movw	r3, #15380
 1315 002a C4F20203 		movt	r3, 16386
 1316 002e 43F61442 		movw	r2, #15380
 1317 0032 C4F20202 		movt	r2, 16386
 1318 0036 1278     		ldrb	r2, [r2, #0]
 1319 0038 D1B2     		uxtb	r1, r2
 1320 003a FA79     		ldrb	r2, [r7, #7]
 1321 003c 0A43     		orrs	r2, r2, r1
 1322 003e D2B2     		uxtb	r2, r2
 1323 0040 1A70     		strb	r2, [r3, #0]
 795:libs/STM32F4xx_StdPeriph_Driver/src/stm32f4xx_flash.c **** 
 796:libs/STM32F4xx_StdPeriph_Driver/src/stm32f4xx_flash.c **** }
 1324              		.loc 1 796 0
 1325 0042 07F10C07 		add	r7, r7, #12
 1326 0046 BD46     		mov	sp, r7
 1327 0048 80BC     		pop	{r7}
 1328 004a 7047     		bx	lr
 1329              		.cfi_endproc
 1330              	.LFE129:
 1332              		.section	.text.FLASH_OB_Launch,"ax",%progbits
 1333              		.align	2
 1334              		.global	FLASH_OB_Launch
 1335              		.thumb
 1336              		.thumb_func
 1338              	FLASH_OB_Launch:
 1339              	.LFB130:
 797:libs/STM32F4xx_StdPeriph_Driver/src/stm32f4xx_flash.c **** 
 798:libs/STM32F4xx_StdPeriph_Driver/src/stm32f4xx_flash.c **** /**
 799:libs/STM32F4xx_StdPeriph_Driver/src/stm32f4xx_flash.c ****   * @brief  Launch the option byte loading.
 800:libs/STM32F4xx_StdPeriph_Driver/src/stm32f4xx_flash.c ****   * @param  None
 801:libs/STM32F4xx_StdPeriph_Driver/src/stm32f4xx_flash.c ****   * @retval FLASH Status: The returned value can be: FLASH_BUSY, FLASH_ERROR_PROGRAM,
 802:libs/STM32F4xx_StdPeriph_Driver/src/stm32f4xx_flash.c ****   *                       FLASH_ERROR_WRP, FLASH_ERROR_OPERATION or FLASH_COMPLETE.
 803:libs/STM32F4xx_StdPeriph_Driver/src/stm32f4xx_flash.c ****   */
 804:libs/STM32F4xx_StdPeriph_Driver/src/stm32f4xx_flash.c **** FLASH_Status FLASH_OB_Launch(void)
 805:libs/STM32F4xx_StdPeriph_Driver/src/stm32f4xx_flash.c **** {
 1340              		.loc 1 805 0
 1341              		.cfi_startproc
 1342              		@ args = 0, pretend = 0, frame = 8
 1343              		@ frame_needed = 1, uses_anonymous_args = 0
 1344 0000 80B5     		push	{r7, lr}
 1345              	.LCFI54:
 1346              		.cfi_def_cfa_offset 8
 1347              		.cfi_offset 14, -4
 1348              		.cfi_offset 7, -8
 1349 0002 82B0     		sub	sp, sp, #8
 1350              	.LCFI55:
 1351              		.cfi_def_cfa_offset 16
 1352 0004 00AF     		add	r7, sp, #0
 1353              	.LCFI56:
 1354              		.cfi_def_cfa_register 7
 806:libs/STM32F4xx_StdPeriph_Driver/src/stm32f4xx_flash.c ****   FLASH_Status status = FLASH_COMPLETE;
 1355              		.loc 1 806 0
 1356 0006 4FF00803 		mov	r3, #8
 1357 000a FB71     		strb	r3, [r7, #7]
 807:libs/STM32F4xx_StdPeriph_Driver/src/stm32f4xx_flash.c **** 
 808:libs/STM32F4xx_StdPeriph_Driver/src/stm32f4xx_flash.c ****   /* Set the OPTSTRT bit in OPTCR register */
 809:libs/STM32F4xx_StdPeriph_Driver/src/stm32f4xx_flash.c ****   *(__IO uint8_t *)OPTCR_BYTE0_ADDRESS |= FLASH_OPTCR_OPTSTRT;
 1358              		.loc 1 809 0
 1359 000c 43F61443 		movw	r3, #15380
 1360 0010 C4F20203 		movt	r3, 16386
 1361 0014 43F61442 		movw	r2, #15380
 1362 0018 C4F20202 		movt	r2, 16386
 1363 001c 1278     		ldrb	r2, [r2, #0]
 1364 001e D2B2     		uxtb	r2, r2
 1365 0020 42F00202 		orr	r2, r2, #2
 1366 0024 D2B2     		uxtb	r2, r2
 1367 0026 1A70     		strb	r2, [r3, #0]
 810:libs/STM32F4xx_StdPeriph_Driver/src/stm32f4xx_flash.c **** 
 811:libs/STM32F4xx_StdPeriph_Driver/src/stm32f4xx_flash.c ****   /* Wait for last operation to be completed */
 812:libs/STM32F4xx_StdPeriph_Driver/src/stm32f4xx_flash.c ****   status = FLASH_WaitForLastOperation();
 1368              		.loc 1 812 0
 1369 0028 FFF7FEFF 		bl	FLASH_WaitForLastOperation
 1370 002c 0346     		mov	r3, r0
 1371 002e FB71     		strb	r3, [r7, #7]
 813:libs/STM32F4xx_StdPeriph_Driver/src/stm32f4xx_flash.c **** 
 814:libs/STM32F4xx_StdPeriph_Driver/src/stm32f4xx_flash.c ****   return status;
 1372              		.loc 1 814 0
 1373 0030 FB79     		ldrb	r3, [r7, #7]	@ zero_extendqisi2
 815:libs/STM32F4xx_StdPeriph_Driver/src/stm32f4xx_flash.c **** }
 1374              		.loc 1 815 0
 1375 0032 1846     		mov	r0, r3
 1376 0034 07F10807 		add	r7, r7, #8
 1377 0038 BD46     		mov	sp, r7
 1378 003a 80BD     		pop	{r7, pc}
 1379              		.cfi_endproc
 1380              	.LFE130:
 1382              		.section	.text.FLASH_OB_GetUser,"ax",%progbits
 1383              		.align	2
 1384              		.global	FLASH_OB_GetUser
 1385              		.thumb
 1386              		.thumb_func
 1388              	FLASH_OB_GetUser:
 1389              	.LFB131:
 816:libs/STM32F4xx_StdPeriph_Driver/src/stm32f4xx_flash.c **** 
 817:libs/STM32F4xx_StdPeriph_Driver/src/stm32f4xx_flash.c **** /**
 818:libs/STM32F4xx_StdPeriph_Driver/src/stm32f4xx_flash.c ****   * @brief  Returns the FLASH User Option Bytes values.
 819:libs/STM32F4xx_StdPeriph_Driver/src/stm32f4xx_flash.c ****   * @param  None
 820:libs/STM32F4xx_StdPeriph_Driver/src/stm32f4xx_flash.c ****   * @retval The FLASH User Option Bytes values: IWDG_SW(Bit0), RST_STOP(Bit1)
 821:libs/STM32F4xx_StdPeriph_Driver/src/stm32f4xx_flash.c ****   *         and RST_STDBY(Bit2).
 822:libs/STM32F4xx_StdPeriph_Driver/src/stm32f4xx_flash.c ****   */
 823:libs/STM32F4xx_StdPeriph_Driver/src/stm32f4xx_flash.c **** uint8_t FLASH_OB_GetUser(void)
 824:libs/STM32F4xx_StdPeriph_Driver/src/stm32f4xx_flash.c **** {
 1390              		.loc 1 824 0
 1391              		.cfi_startproc
 1392              		@ args = 0, pretend = 0, frame = 0
 1393              		@ frame_needed = 1, uses_anonymous_args = 0
 1394              		@ link register save eliminated.
 1395 0000 80B4     		push	{r7}
 1396              	.LCFI57:
 1397              		.cfi_def_cfa_offset 4
 1398              		.cfi_offset 7, -4
 1399 0002 00AF     		add	r7, sp, #0
 1400              	.LCFI58:
 1401              		.cfi_def_cfa_register 7
 825:libs/STM32F4xx_StdPeriph_Driver/src/stm32f4xx_flash.c ****   /* Return the User Option Byte */
 826:libs/STM32F4xx_StdPeriph_Driver/src/stm32f4xx_flash.c ****   return (uint8_t)(FLASH->OPTCR >> 5);
 1402              		.loc 1 826 0
 1403 0004 4FF47053 		mov	r3, #15360
 1404 0008 C4F20203 		movt	r3, 16386
 1405 000c 5B69     		ldr	r3, [r3, #20]
 1406 000e 4FEA5313 		lsr	r3, r3, #5
 1407 0012 DBB2     		uxtb	r3, r3
 827:libs/STM32F4xx_StdPeriph_Driver/src/stm32f4xx_flash.c **** }
 1408              		.loc 1 827 0
 1409 0014 1846     		mov	r0, r3
 1410 0016 BD46     		mov	sp, r7
 1411 0018 80BC     		pop	{r7}
 1412 001a 7047     		bx	lr
 1413              		.cfi_endproc
 1414              	.LFE131:
 1416              		.section	.text.FLASH_OB_GetWRP,"ax",%progbits
 1417              		.align	2
 1418              		.global	FLASH_OB_GetWRP
 1419              		.thumb
 1420              		.thumb_func
 1422              	FLASH_OB_GetWRP:
 1423              	.LFB132:
 828:libs/STM32F4xx_StdPeriph_Driver/src/stm32f4xx_flash.c **** 
 829:libs/STM32F4xx_StdPeriph_Driver/src/stm32f4xx_flash.c **** /**
 830:libs/STM32F4xx_StdPeriph_Driver/src/stm32f4xx_flash.c ****   * @brief  Returns the FLASH Write Protection Option Bytes value.
 831:libs/STM32F4xx_StdPeriph_Driver/src/stm32f4xx_flash.c ****   * @param  None
 832:libs/STM32F4xx_StdPeriph_Driver/src/stm32f4xx_flash.c ****   * @retval The FLASH Write Protection  Option Bytes value
 833:libs/STM32F4xx_StdPeriph_Driver/src/stm32f4xx_flash.c ****   */
 834:libs/STM32F4xx_StdPeriph_Driver/src/stm32f4xx_flash.c **** uint16_t FLASH_OB_GetWRP(void)
 835:libs/STM32F4xx_StdPeriph_Driver/src/stm32f4xx_flash.c **** {
 1424              		.loc 1 835 0
 1425              		.cfi_startproc
 1426              		@ args = 0, pretend = 0, frame = 0
 1427              		@ frame_needed = 1, uses_anonymous_args = 0
 1428              		@ link register save eliminated.
 1429 0000 80B4     		push	{r7}
 1430              	.LCFI59:
 1431              		.cfi_def_cfa_offset 4
 1432              		.cfi_offset 7, -4
 1433 0002 00AF     		add	r7, sp, #0
 1434              	.LCFI60:
 1435              		.cfi_def_cfa_register 7
 836:libs/STM32F4xx_StdPeriph_Driver/src/stm32f4xx_flash.c ****   /* Return the FLASH write protection Register value */
 837:libs/STM32F4xx_StdPeriph_Driver/src/stm32f4xx_flash.c ****   return (*(__IO uint16_t *)(OPTCR_BYTE2_ADDRESS));
 1436              		.loc 1 837 0
 1437 0004 43F61643 		movw	r3, #15382
 1438 0008 C4F20203 		movt	r3, 16386
 1439 000c 1B88     		ldrh	r3, [r3, #0]	@ movhi
 1440 000e 9BB2     		uxth	r3, r3
 838:libs/STM32F4xx_StdPeriph_Driver/src/stm32f4xx_flash.c **** }
 1441              		.loc 1 838 0
 1442 0010 1846     		mov	r0, r3
 1443 0012 BD46     		mov	sp, r7
 1444 0014 80BC     		pop	{r7}
 1445 0016 7047     		bx	lr
 1446              		.cfi_endproc
 1447              	.LFE132:
 1449              		.section	.text.FLASH_OB_GetRDP,"ax",%progbits
 1450              		.align	2
 1451              		.global	FLASH_OB_GetRDP
 1452              		.thumb
 1453              		.thumb_func
 1455              	FLASH_OB_GetRDP:
 1456              	.LFB133:
 839:libs/STM32F4xx_StdPeriph_Driver/src/stm32f4xx_flash.c **** 
 840:libs/STM32F4xx_StdPeriph_Driver/src/stm32f4xx_flash.c **** /**
 841:libs/STM32F4xx_StdPeriph_Driver/src/stm32f4xx_flash.c ****   * @brief  Returns the FLASH Read Protection level.
 842:libs/STM32F4xx_StdPeriph_Driver/src/stm32f4xx_flash.c ****   * @param  None
 843:libs/STM32F4xx_StdPeriph_Driver/src/stm32f4xx_flash.c ****   * @retval FLASH ReadOut Protection Status:
 844:libs/STM32F4xx_StdPeriph_Driver/src/stm32f4xx_flash.c ****   *           - SET, when OB_RDP_Level_1 or OB_RDP_Level_2 is set
 845:libs/STM32F4xx_StdPeriph_Driver/src/stm32f4xx_flash.c ****   *           - RESET, when OB_RDP_Level_0 is set
 846:libs/STM32F4xx_StdPeriph_Driver/src/stm32f4xx_flash.c ****   */
 847:libs/STM32F4xx_StdPeriph_Driver/src/stm32f4xx_flash.c **** FlagStatus FLASH_OB_GetRDP(void)
 848:libs/STM32F4xx_StdPeriph_Driver/src/stm32f4xx_flash.c **** {
 1457              		.loc 1 848 0
 1458              		.cfi_startproc
 1459              		@ args = 0, pretend = 0, frame = 8
 1460              		@ frame_needed = 1, uses_anonymous_args = 0
 1461              		@ link register save eliminated.
 1462 0000 80B4     		push	{r7}
 1463              	.LCFI61:
 1464              		.cfi_def_cfa_offset 4
 1465              		.cfi_offset 7, -4
 1466 0002 83B0     		sub	sp, sp, #12
 1467              	.LCFI62:
 1468              		.cfi_def_cfa_offset 16
 1469 0004 00AF     		add	r7, sp, #0
 1470              	.LCFI63:
 1471              		.cfi_def_cfa_register 7
 849:libs/STM32F4xx_StdPeriph_Driver/src/stm32f4xx_flash.c ****   FlagStatus readstatus = RESET;
 1472              		.loc 1 849 0
 1473 0006 4FF00003 		mov	r3, #0
 1474 000a FB71     		strb	r3, [r7, #7]
 850:libs/STM32F4xx_StdPeriph_Driver/src/stm32f4xx_flash.c **** 
 851:libs/STM32F4xx_StdPeriph_Driver/src/stm32f4xx_flash.c ****   if ((*(__IO uint8_t*)(OPTCR_BYTE1_ADDRESS) != (uint8_t)OB_RDP_Level_0))
 1475              		.loc 1 851 0
 1476 000c 43F61543 		movw	r3, #15381
 1477 0010 C4F20203 		movt	r3, 16386
 1478 0014 1B78     		ldrb	r3, [r3, #0]
 1479 0016 DBB2     		uxtb	r3, r3
 1480 0018 AA2B     		cmp	r3, #170
 1481 001a 03D0     		beq	.L51
 852:libs/STM32F4xx_StdPeriph_Driver/src/stm32f4xx_flash.c ****   {
 853:libs/STM32F4xx_StdPeriph_Driver/src/stm32f4xx_flash.c ****     readstatus = SET;
 1482              		.loc 1 853 0
 1483 001c 4FF00103 		mov	r3, #1
 1484 0020 FB71     		strb	r3, [r7, #7]
 1485 0022 02E0     		b	.L52
 1486              	.L51:
 854:libs/STM32F4xx_StdPeriph_Driver/src/stm32f4xx_flash.c ****   }
 855:libs/STM32F4xx_StdPeriph_Driver/src/stm32f4xx_flash.c ****   else
 856:libs/STM32F4xx_StdPeriph_Driver/src/stm32f4xx_flash.c ****   {
 857:libs/STM32F4xx_StdPeriph_Driver/src/stm32f4xx_flash.c ****     readstatus = RESET;
 1487              		.loc 1 857 0
 1488 0024 4FF00003 		mov	r3, #0
 1489 0028 FB71     		strb	r3, [r7, #7]
 1490              	.L52:
 858:libs/STM32F4xx_StdPeriph_Driver/src/stm32f4xx_flash.c ****   }
 859:libs/STM32F4xx_StdPeriph_Driver/src/stm32f4xx_flash.c ****   return readstatus;
 1491              		.loc 1 859 0
 1492 002a FB79     		ldrb	r3, [r7, #7]	@ zero_extendqisi2
 860:libs/STM32F4xx_StdPeriph_Driver/src/stm32f4xx_flash.c **** }
 1493              		.loc 1 860 0
 1494 002c 1846     		mov	r0, r3
 1495 002e 07F10C07 		add	r7, r7, #12
 1496 0032 BD46     		mov	sp, r7
 1497 0034 80BC     		pop	{r7}
 1498 0036 7047     		bx	lr
 1499              		.cfi_endproc
 1500              	.LFE133:
 1502              		.section	.text.FLASH_OB_GetBOR,"ax",%progbits
 1503              		.align	2
 1504              		.global	FLASH_OB_GetBOR
 1505              		.thumb
 1506              		.thumb_func
 1508              	FLASH_OB_GetBOR:
 1509              	.LFB134:
 861:libs/STM32F4xx_StdPeriph_Driver/src/stm32f4xx_flash.c **** 
 862:libs/STM32F4xx_StdPeriph_Driver/src/stm32f4xx_flash.c **** /**
 863:libs/STM32F4xx_StdPeriph_Driver/src/stm32f4xx_flash.c ****   * @brief  Returns the FLASH BOR level.
 864:libs/STM32F4xx_StdPeriph_Driver/src/stm32f4xx_flash.c ****   * @param  None
 865:libs/STM32F4xx_StdPeriph_Driver/src/stm32f4xx_flash.c ****   * @retval The FLASH BOR level:
 866:libs/STM32F4xx_StdPeriph_Driver/src/stm32f4xx_flash.c ****   *           - OB_BOR_LEVEL3: Supply voltage ranges from 2.7 to 3.6 V
 867:libs/STM32F4xx_StdPeriph_Driver/src/stm32f4xx_flash.c ****   *           - OB_BOR_LEVEL2: Supply voltage ranges from 2.4 to 2.7 V
 868:libs/STM32F4xx_StdPeriph_Driver/src/stm32f4xx_flash.c ****   *           - OB_BOR_LEVEL1: Supply voltage ranges from 2.1 to 2.4 V
 869:libs/STM32F4xx_StdPeriph_Driver/src/stm32f4xx_flash.c ****   *           - OB_BOR_OFF   : Supply voltage ranges from 1.62 to 2.1 V  
 870:libs/STM32F4xx_StdPeriph_Driver/src/stm32f4xx_flash.c ****   */
 871:libs/STM32F4xx_StdPeriph_Driver/src/stm32f4xx_flash.c **** uint8_t FLASH_OB_GetBOR(void)
 872:libs/STM32F4xx_StdPeriph_Driver/src/stm32f4xx_flash.c **** {
 1510              		.loc 1 872 0
 1511              		.cfi_startproc
 1512              		@ args = 0, pretend = 0, frame = 0
 1513              		@ frame_needed = 1, uses_anonymous_args = 0
 1514              		@ link register save eliminated.
 1515 0000 80B4     		push	{r7}
 1516              	.LCFI64:
 1517              		.cfi_def_cfa_offset 4
 1518              		.cfi_offset 7, -4
 1519 0002 00AF     		add	r7, sp, #0
 1520              	.LCFI65:
 1521              		.cfi_def_cfa_register 7
 873:libs/STM32F4xx_StdPeriph_Driver/src/stm32f4xx_flash.c ****   /* Return the FLASH BOR level */
 874:libs/STM32F4xx_StdPeriph_Driver/src/stm32f4xx_flash.c ****   return (uint8_t)(*(__IO uint8_t *)(OPTCR_BYTE0_ADDRESS) & (uint8_t)0x0C);
 1522              		.loc 1 874 0
 1523 0004 43F61443 		movw	r3, #15380
 1524 0008 C4F20203 		movt	r3, 16386
 1525 000c 1B78     		ldrb	r3, [r3, #0]
 1526 000e DBB2     		uxtb	r3, r3
 1527 0010 03F00C03 		and	r3, r3, #12
 1528 0014 DBB2     		uxtb	r3, r3
 875:libs/STM32F4xx_StdPeriph_Driver/src/stm32f4xx_flash.c **** }
 1529              		.loc 1 875 0
 1530 0016 1846     		mov	r0, r3
 1531 0018 BD46     		mov	sp, r7
 1532 001a 80BC     		pop	{r7}
 1533 001c 7047     		bx	lr
 1534              		.cfi_endproc
 1535              	.LFE134:
 1537 001e 00BF     		.section	.text.FLASH_ITConfig,"ax",%progbits
 1538              		.align	2
 1539              		.global	FLASH_ITConfig
 1540              		.thumb
 1541              		.thumb_func
 1543              	FLASH_ITConfig:
 1544              	.LFB135:
 876:libs/STM32F4xx_StdPeriph_Driver/src/stm32f4xx_flash.c **** 
 877:libs/STM32F4xx_StdPeriph_Driver/src/stm32f4xx_flash.c **** /**
 878:libs/STM32F4xx_StdPeriph_Driver/src/stm32f4xx_flash.c ****   * @}
 879:libs/STM32F4xx_StdPeriph_Driver/src/stm32f4xx_flash.c ****   */
 880:libs/STM32F4xx_StdPeriph_Driver/src/stm32f4xx_flash.c **** 
 881:libs/STM32F4xx_StdPeriph_Driver/src/stm32f4xx_flash.c **** /** @defgroup FLASH_Group4 Interrupts and flags management functions
 882:libs/STM32F4xx_StdPeriph_Driver/src/stm32f4xx_flash.c ****  *  @brief   Interrupts and flags management functions
 883:libs/STM32F4xx_StdPeriph_Driver/src/stm32f4xx_flash.c ****  *
 884:libs/STM32F4xx_StdPeriph_Driver/src/stm32f4xx_flash.c **** @verbatim   
 885:libs/STM32F4xx_StdPeriph_Driver/src/stm32f4xx_flash.c ****  ===============================================================================
 886:libs/STM32F4xx_StdPeriph_Driver/src/stm32f4xx_flash.c ****                   Interrupts and flags management functions
 887:libs/STM32F4xx_StdPeriph_Driver/src/stm32f4xx_flash.c ****  ===============================================================================  
 888:libs/STM32F4xx_StdPeriph_Driver/src/stm32f4xx_flash.c **** 
 889:libs/STM32F4xx_StdPeriph_Driver/src/stm32f4xx_flash.c **** @endverbatim
 890:libs/STM32F4xx_StdPeriph_Driver/src/stm32f4xx_flash.c ****   * @{
 891:libs/STM32F4xx_StdPeriph_Driver/src/stm32f4xx_flash.c ****   */
 892:libs/STM32F4xx_StdPeriph_Driver/src/stm32f4xx_flash.c **** 
 893:libs/STM32F4xx_StdPeriph_Driver/src/stm32f4xx_flash.c **** /**
 894:libs/STM32F4xx_StdPeriph_Driver/src/stm32f4xx_flash.c ****   * @brief  Enables or disables the specified FLASH interrupts.
 895:libs/STM32F4xx_StdPeriph_Driver/src/stm32f4xx_flash.c ****   * @param  FLASH_IT: specifies the FLASH interrupt sources to be enabled or disabled.
 896:libs/STM32F4xx_StdPeriph_Driver/src/stm32f4xx_flash.c ****   *          This parameter can be any combination of the following values:
 897:libs/STM32F4xx_StdPeriph_Driver/src/stm32f4xx_flash.c ****   *            @arg FLASH_IT_ERR: FLASH Error Interrupt
 898:libs/STM32F4xx_StdPeriph_Driver/src/stm32f4xx_flash.c ****   *            @arg FLASH_IT_EOP: FLASH end of operation Interrupt
 899:libs/STM32F4xx_StdPeriph_Driver/src/stm32f4xx_flash.c ****   * @retval None 
 900:libs/STM32F4xx_StdPeriph_Driver/src/stm32f4xx_flash.c ****   */
 901:libs/STM32F4xx_StdPeriph_Driver/src/stm32f4xx_flash.c **** void FLASH_ITConfig(uint32_t FLASH_IT, FunctionalState NewState)
 902:libs/STM32F4xx_StdPeriph_Driver/src/stm32f4xx_flash.c **** {
 1545              		.loc 1 902 0
 1546              		.cfi_startproc
 1547              		@ args = 0, pretend = 0, frame = 8
 1548              		@ frame_needed = 1, uses_anonymous_args = 0
 1549              		@ link register save eliminated.
 1550 0000 80B4     		push	{r7}
 1551              	.LCFI66:
 1552              		.cfi_def_cfa_offset 4
 1553              		.cfi_offset 7, -4
 1554 0002 83B0     		sub	sp, sp, #12
 1555              	.LCFI67:
 1556              		.cfi_def_cfa_offset 16
 1557 0004 00AF     		add	r7, sp, #0
 1558              	.LCFI68:
 1559              		.cfi_def_cfa_register 7
 1560 0006 7860     		str	r0, [r7, #4]
 1561 0008 0B46     		mov	r3, r1
 1562 000a FB70     		strb	r3, [r7, #3]
 903:libs/STM32F4xx_StdPeriph_Driver/src/stm32f4xx_flash.c ****   /* Check the parameters */
 904:libs/STM32F4xx_StdPeriph_Driver/src/stm32f4xx_flash.c ****   assert_param(IS_FLASH_IT(FLASH_IT)); 
 905:libs/STM32F4xx_StdPeriph_Driver/src/stm32f4xx_flash.c ****   assert_param(IS_FUNCTIONAL_STATE(NewState));
 906:libs/STM32F4xx_StdPeriph_Driver/src/stm32f4xx_flash.c **** 
 907:libs/STM32F4xx_StdPeriph_Driver/src/stm32f4xx_flash.c ****   if(NewState != DISABLE)
 1563              		.loc 1 907 0
 1564 000c FB78     		ldrb	r3, [r7, #3]	@ zero_extendqisi2
 1565 000e 002B     		cmp	r3, #0
 1566 0010 0CD0     		beq	.L55
 908:libs/STM32F4xx_StdPeriph_Driver/src/stm32f4xx_flash.c ****   {
 909:libs/STM32F4xx_StdPeriph_Driver/src/stm32f4xx_flash.c ****     /* Enable the interrupt sources */
 910:libs/STM32F4xx_StdPeriph_Driver/src/stm32f4xx_flash.c ****     FLASH->CR |= FLASH_IT;
 1567              		.loc 1 910 0
 1568 0012 4FF47053 		mov	r3, #15360
 1569 0016 C4F20203 		movt	r3, 16386
 1570 001a 4FF47052 		mov	r2, #15360
 1571 001e C4F20202 		movt	r2, 16386
 1572 0022 1169     		ldr	r1, [r2, #16]
 1573 0024 7A68     		ldr	r2, [r7, #4]
 1574 0026 0A43     		orrs	r2, r2, r1
 1575 0028 1A61     		str	r2, [r3, #16]
 1576 002a 0DE0     		b	.L54
 1577              	.L55:
 911:libs/STM32F4xx_StdPeriph_Driver/src/stm32f4xx_flash.c ****   }
 912:libs/STM32F4xx_StdPeriph_Driver/src/stm32f4xx_flash.c ****   else
 913:libs/STM32F4xx_StdPeriph_Driver/src/stm32f4xx_flash.c ****   {
 914:libs/STM32F4xx_StdPeriph_Driver/src/stm32f4xx_flash.c ****     /* Disable the interrupt sources */
 915:libs/STM32F4xx_StdPeriph_Driver/src/stm32f4xx_flash.c ****     FLASH->CR &= ~(uint32_t)FLASH_IT;
 1578              		.loc 1 915 0
 1579 002c 4FF47053 		mov	r3, #15360
 1580 0030 C4F20203 		movt	r3, 16386
 1581 0034 4FF47052 		mov	r2, #15360
 1582 0038 C4F20202 		movt	r2, 16386
 1583 003c 1169     		ldr	r1, [r2, #16]
 1584 003e 7A68     		ldr	r2, [r7, #4]
 1585 0040 6FEA0202 		mvn	r2, r2
 1586 0044 0A40     		ands	r2, r2, r1
 1587 0046 1A61     		str	r2, [r3, #16]
 1588              	.L54:
 916:libs/STM32F4xx_StdPeriph_Driver/src/stm32f4xx_flash.c ****   }
 917:libs/STM32F4xx_StdPeriph_Driver/src/stm32f4xx_flash.c **** }
 1589              		.loc 1 917 0
 1590 0048 07F10C07 		add	r7, r7, #12
 1591 004c BD46     		mov	sp, r7
 1592 004e 80BC     		pop	{r7}
 1593 0050 7047     		bx	lr
 1594              		.cfi_endproc
 1595              	.LFE135:
 1597 0052 00BF     		.section	.text.FLASH_GetFlagStatus,"ax",%progbits
 1598              		.align	2
 1599              		.global	FLASH_GetFlagStatus
 1600              		.thumb
 1601              		.thumb_func
 1603              	FLASH_GetFlagStatus:
 1604              	.LFB136:
 918:libs/STM32F4xx_StdPeriph_Driver/src/stm32f4xx_flash.c **** 
 919:libs/STM32F4xx_StdPeriph_Driver/src/stm32f4xx_flash.c **** /**
 920:libs/STM32F4xx_StdPeriph_Driver/src/stm32f4xx_flash.c ****   * @brief  Checks whether the specified FLASH flag is set or not.
 921:libs/STM32F4xx_StdPeriph_Driver/src/stm32f4xx_flash.c ****   * @param  FLASH_FLAG: specifies the FLASH flag to check.
 922:libs/STM32F4xx_StdPeriph_Driver/src/stm32f4xx_flash.c ****   *          This parameter can be one of the following values:
 923:libs/STM32F4xx_StdPeriph_Driver/src/stm32f4xx_flash.c ****   *            @arg FLASH_FLAG_EOP: FLASH End of Operation flag 
 924:libs/STM32F4xx_StdPeriph_Driver/src/stm32f4xx_flash.c ****   *            @arg FLASH_FLAG_OPERR: FLASH operation Error flag 
 925:libs/STM32F4xx_StdPeriph_Driver/src/stm32f4xx_flash.c ****   *            @arg FLASH_FLAG_WRPERR: FLASH Write protected error flag 
 926:libs/STM32F4xx_StdPeriph_Driver/src/stm32f4xx_flash.c ****   *            @arg FLASH_FLAG_PGAERR: FLASH Programming Alignment error flag
 927:libs/STM32F4xx_StdPeriph_Driver/src/stm32f4xx_flash.c ****   *            @arg FLASH_FLAG_PGPERR: FLASH Programming Parallelism error flag
 928:libs/STM32F4xx_StdPeriph_Driver/src/stm32f4xx_flash.c ****   *            @arg FLASH_FLAG_PGSERR: FLASH Programming Sequence error flag
 929:libs/STM32F4xx_StdPeriph_Driver/src/stm32f4xx_flash.c ****   *            @arg FLASH_FLAG_BSY: FLASH Busy flag
 930:libs/STM32F4xx_StdPeriph_Driver/src/stm32f4xx_flash.c ****   * @retval The new state of FLASH_FLAG (SET or RESET).
 931:libs/STM32F4xx_StdPeriph_Driver/src/stm32f4xx_flash.c ****   */
 932:libs/STM32F4xx_StdPeriph_Driver/src/stm32f4xx_flash.c **** FlagStatus FLASH_GetFlagStatus(uint32_t FLASH_FLAG)
 933:libs/STM32F4xx_StdPeriph_Driver/src/stm32f4xx_flash.c **** {
 1605              		.loc 1 933 0
 1606              		.cfi_startproc
 1607              		@ args = 0, pretend = 0, frame = 16
 1608              		@ frame_needed = 1, uses_anonymous_args = 0
 1609              		@ link register save eliminated.
 1610 0000 80B4     		push	{r7}
 1611              	.LCFI69:
 1612              		.cfi_def_cfa_offset 4
 1613              		.cfi_offset 7, -4
 1614 0002 85B0     		sub	sp, sp, #20
 1615              	.LCFI70:
 1616              		.cfi_def_cfa_offset 24
 1617 0004 00AF     		add	r7, sp, #0
 1618              	.LCFI71:
 1619              		.cfi_def_cfa_register 7
 1620 0006 7860     		str	r0, [r7, #4]
 934:libs/STM32F4xx_StdPeriph_Driver/src/stm32f4xx_flash.c ****   FlagStatus bitstatus = RESET;
 1621              		.loc 1 934 0
 1622 0008 4FF00003 		mov	r3, #0
 1623 000c FB73     		strb	r3, [r7, #15]
 935:libs/STM32F4xx_StdPeriph_Driver/src/stm32f4xx_flash.c ****   /* Check the parameters */
 936:libs/STM32F4xx_StdPeriph_Driver/src/stm32f4xx_flash.c ****   assert_param(IS_FLASH_GET_FLAG(FLASH_FLAG));
 937:libs/STM32F4xx_StdPeriph_Driver/src/stm32f4xx_flash.c **** 
 938:libs/STM32F4xx_StdPeriph_Driver/src/stm32f4xx_flash.c ****   if((FLASH->SR & FLASH_FLAG) != (uint32_t)RESET)
 1624              		.loc 1 938 0
 1625 000e 4FF47053 		mov	r3, #15360
 1626 0012 C4F20203 		movt	r3, 16386
 1627 0016 DA68     		ldr	r2, [r3, #12]
 1628 0018 7B68     		ldr	r3, [r7, #4]
 1629 001a 1340     		ands	r3, r3, r2
 1630 001c 002B     		cmp	r3, #0
 1631 001e 03D0     		beq	.L58
 939:libs/STM32F4xx_StdPeriph_Driver/src/stm32f4xx_flash.c ****   {
 940:libs/STM32F4xx_StdPeriph_Driver/src/stm32f4xx_flash.c ****     bitstatus = SET;
 1632              		.loc 1 940 0
 1633 0020 4FF00103 		mov	r3, #1
 1634 0024 FB73     		strb	r3, [r7, #15]
 1635 0026 02E0     		b	.L59
 1636              	.L58:
 941:libs/STM32F4xx_StdPeriph_Driver/src/stm32f4xx_flash.c ****   }
 942:libs/STM32F4xx_StdPeriph_Driver/src/stm32f4xx_flash.c ****   else
 943:libs/STM32F4xx_StdPeriph_Driver/src/stm32f4xx_flash.c ****   {
 944:libs/STM32F4xx_StdPeriph_Driver/src/stm32f4xx_flash.c ****     bitstatus = RESET;
 1637              		.loc 1 944 0
 1638 0028 4FF00003 		mov	r3, #0
 1639 002c FB73     		strb	r3, [r7, #15]
 1640              	.L59:
 945:libs/STM32F4xx_StdPeriph_Driver/src/stm32f4xx_flash.c ****   }
 946:libs/STM32F4xx_StdPeriph_Driver/src/stm32f4xx_flash.c ****   /* Return the new state of FLASH_FLAG (SET or RESET) */
 947:libs/STM32F4xx_StdPeriph_Driver/src/stm32f4xx_flash.c ****   return bitstatus; 
 1641              		.loc 1 947 0
 1642 002e FB7B     		ldrb	r3, [r7, #15]	@ zero_extendqisi2
 948:libs/STM32F4xx_StdPeriph_Driver/src/stm32f4xx_flash.c **** }
 1643              		.loc 1 948 0
 1644 0030 1846     		mov	r0, r3
 1645 0032 07F11407 		add	r7, r7, #20
 1646 0036 BD46     		mov	sp, r7
 1647 0038 80BC     		pop	{r7}
 1648 003a 7047     		bx	lr
 1649              		.cfi_endproc
 1650              	.LFE136:
 1652              		.section	.text.FLASH_ClearFlag,"ax",%progbits
 1653              		.align	2
 1654              		.global	FLASH_ClearFlag
 1655              		.thumb
 1656              		.thumb_func
 1658              	FLASH_ClearFlag:
 1659              	.LFB137:
 949:libs/STM32F4xx_StdPeriph_Driver/src/stm32f4xx_flash.c **** 
 950:libs/STM32F4xx_StdPeriph_Driver/src/stm32f4xx_flash.c **** /**
 951:libs/STM32F4xx_StdPeriph_Driver/src/stm32f4xx_flash.c ****   * @brief  Clears the FLASH's pending flags.
 952:libs/STM32F4xx_StdPeriph_Driver/src/stm32f4xx_flash.c ****   * @param  FLASH_FLAG: specifies the FLASH flags to clear.
 953:libs/STM32F4xx_StdPeriph_Driver/src/stm32f4xx_flash.c ****   *          This parameter can be any combination of the following values:
 954:libs/STM32F4xx_StdPeriph_Driver/src/stm32f4xx_flash.c ****   *            @arg FLASH_FLAG_EOP: FLASH End of Operation flag 
 955:libs/STM32F4xx_StdPeriph_Driver/src/stm32f4xx_flash.c ****   *            @arg FLASH_FLAG_OPERR: FLASH operation Error flag 
 956:libs/STM32F4xx_StdPeriph_Driver/src/stm32f4xx_flash.c ****   *            @arg FLASH_FLAG_WRPERR: FLASH Write protected error flag 
 957:libs/STM32F4xx_StdPeriph_Driver/src/stm32f4xx_flash.c ****   *            @arg FLASH_FLAG_PGAERR: FLASH Programming Alignment error flag 
 958:libs/STM32F4xx_StdPeriph_Driver/src/stm32f4xx_flash.c ****   *            @arg FLASH_FLAG_PGPERR: FLASH Programming Parallelism error flag
 959:libs/STM32F4xx_StdPeriph_Driver/src/stm32f4xx_flash.c ****   *            @arg FLASH_FLAG_PGSERR: FLASH Programming Sequence error flag
 960:libs/STM32F4xx_StdPeriph_Driver/src/stm32f4xx_flash.c ****   * @retval None
 961:libs/STM32F4xx_StdPeriph_Driver/src/stm32f4xx_flash.c ****   */
 962:libs/STM32F4xx_StdPeriph_Driver/src/stm32f4xx_flash.c **** void FLASH_ClearFlag(uint32_t FLASH_FLAG)
 963:libs/STM32F4xx_StdPeriph_Driver/src/stm32f4xx_flash.c **** {
 1660              		.loc 1 963 0
 1661              		.cfi_startproc
 1662              		@ args = 0, pretend = 0, frame = 8
 1663              		@ frame_needed = 1, uses_anonymous_args = 0
 1664              		@ link register save eliminated.
 1665 0000 80B4     		push	{r7}
 1666              	.LCFI72:
 1667              		.cfi_def_cfa_offset 4
 1668              		.cfi_offset 7, -4
 1669 0002 83B0     		sub	sp, sp, #12
 1670              	.LCFI73:
 1671              		.cfi_def_cfa_offset 16
 1672 0004 00AF     		add	r7, sp, #0
 1673              	.LCFI74:
 1674              		.cfi_def_cfa_register 7
 1675 0006 7860     		str	r0, [r7, #4]
 964:libs/STM32F4xx_StdPeriph_Driver/src/stm32f4xx_flash.c ****   /* Check the parameters */
 965:libs/STM32F4xx_StdPeriph_Driver/src/stm32f4xx_flash.c ****   assert_param(IS_FLASH_CLEAR_FLAG(FLASH_FLAG));
 966:libs/STM32F4xx_StdPeriph_Driver/src/stm32f4xx_flash.c ****   
 967:libs/STM32F4xx_StdPeriph_Driver/src/stm32f4xx_flash.c ****   /* Clear the flags */
 968:libs/STM32F4xx_StdPeriph_Driver/src/stm32f4xx_flash.c ****   FLASH->SR = FLASH_FLAG;
 1676              		.loc 1 968 0
 1677 0008 4FF47053 		mov	r3, #15360
 1678 000c C4F20203 		movt	r3, 16386
 1679 0010 7A68     		ldr	r2, [r7, #4]
 1680 0012 DA60     		str	r2, [r3, #12]
 969:libs/STM32F4xx_StdPeriph_Driver/src/stm32f4xx_flash.c **** }
 1681              		.loc 1 969 0
 1682 0014 07F10C07 		add	r7, r7, #12
 1683 0018 BD46     		mov	sp, r7
 1684 001a 80BC     		pop	{r7}
 1685 001c 7047     		bx	lr
 1686              		.cfi_endproc
 1687              	.LFE137:
 1689 001e 00BF     		.section	.text.FLASH_GetStatus,"ax",%progbits
 1690              		.align	2
 1691              		.global	FLASH_GetStatus
 1692              		.thumb
 1693              		.thumb_func
 1695              	FLASH_GetStatus:
 1696              	.LFB138:
 970:libs/STM32F4xx_StdPeriph_Driver/src/stm32f4xx_flash.c **** 
 971:libs/STM32F4xx_StdPeriph_Driver/src/stm32f4xx_flash.c **** /**
 972:libs/STM32F4xx_StdPeriph_Driver/src/stm32f4xx_flash.c ****   * @brief  Returns the FLASH Status.
 973:libs/STM32F4xx_StdPeriph_Driver/src/stm32f4xx_flash.c ****   * @param  None
 974:libs/STM32F4xx_StdPeriph_Driver/src/stm32f4xx_flash.c ****   * @retval FLASH Status: The returned value can be: FLASH_BUSY, FLASH_ERROR_PROGRAM,
 975:libs/STM32F4xx_StdPeriph_Driver/src/stm32f4xx_flash.c ****   *                       FLASH_ERROR_WRP, FLASH_ERROR_OPERATION or FLASH_COMPLETE.
 976:libs/STM32F4xx_StdPeriph_Driver/src/stm32f4xx_flash.c ****   */
 977:libs/STM32F4xx_StdPeriph_Driver/src/stm32f4xx_flash.c **** FLASH_Status FLASH_GetStatus(void)
 978:libs/STM32F4xx_StdPeriph_Driver/src/stm32f4xx_flash.c **** {
 1697              		.loc 1 978 0
 1698              		.cfi_startproc
 1699              		@ args = 0, pretend = 0, frame = 8
 1700              		@ frame_needed = 1, uses_anonymous_args = 0
 1701              		@ link register save eliminated.
 1702 0000 80B4     		push	{r7}
 1703              	.LCFI75:
 1704              		.cfi_def_cfa_offset 4
 1705              		.cfi_offset 7, -4
 1706 0002 83B0     		sub	sp, sp, #12
 1707              	.LCFI76:
 1708              		.cfi_def_cfa_offset 16
 1709 0004 00AF     		add	r7, sp, #0
 1710              	.LCFI77:
 1711              		.cfi_def_cfa_register 7
 979:libs/STM32F4xx_StdPeriph_Driver/src/stm32f4xx_flash.c ****   FLASH_Status flashstatus = FLASH_COMPLETE;
 1712              		.loc 1 979 0
 1713 0006 4FF00803 		mov	r3, #8
 1714 000a FB71     		strb	r3, [r7, #7]
 980:libs/STM32F4xx_StdPeriph_Driver/src/stm32f4xx_flash.c ****   
 981:libs/STM32F4xx_StdPeriph_Driver/src/stm32f4xx_flash.c ****   if((FLASH->SR & FLASH_FLAG_BSY) == FLASH_FLAG_BSY) 
 1715              		.loc 1 981 0
 1716 000c 4FF47053 		mov	r3, #15360
 1717 0010 C4F20203 		movt	r3, 16386
 1718 0014 DB68     		ldr	r3, [r3, #12]
 1719 0016 03F48033 		and	r3, r3, #65536
 1720 001a 002B     		cmp	r3, #0
 1721 001c 03D0     		beq	.L62
 982:libs/STM32F4xx_StdPeriph_Driver/src/stm32f4xx_flash.c ****   {
 983:libs/STM32F4xx_StdPeriph_Driver/src/stm32f4xx_flash.c ****     flashstatus = FLASH_BUSY;
 1722              		.loc 1 983 0
 1723 001e 4FF00103 		mov	r3, #1
 1724 0022 FB71     		strb	r3, [r7, #7]
 1725 0024 29E0     		b	.L63
 1726              	.L62:
 984:libs/STM32F4xx_StdPeriph_Driver/src/stm32f4xx_flash.c ****   }
 985:libs/STM32F4xx_StdPeriph_Driver/src/stm32f4xx_flash.c ****   else 
 986:libs/STM32F4xx_StdPeriph_Driver/src/stm32f4xx_flash.c ****   {  
 987:libs/STM32F4xx_StdPeriph_Driver/src/stm32f4xx_flash.c ****     if((FLASH->SR & FLASH_FLAG_WRPERR) != (uint32_t)0x00)
 1727              		.loc 1 987 0
 1728 0026 4FF47053 		mov	r3, #15360
 1729 002a C4F20203 		movt	r3, 16386
 1730 002e DB68     		ldr	r3, [r3, #12]
 1731 0030 03F01003 		and	r3, r3, #16
 1732 0034 002B     		cmp	r3, #0
 1733 0036 03D0     		beq	.L64
 988:libs/STM32F4xx_StdPeriph_Driver/src/stm32f4xx_flash.c ****     { 
 989:libs/STM32F4xx_StdPeriph_Driver/src/stm32f4xx_flash.c ****       flashstatus = FLASH_ERROR_WRP;
 1734              		.loc 1 989 0
 1735 0038 4FF00503 		mov	r3, #5
 1736 003c FB71     		strb	r3, [r7, #7]
 1737 003e 1CE0     		b	.L63
 1738              	.L64:
 990:libs/STM32F4xx_StdPeriph_Driver/src/stm32f4xx_flash.c ****     }
 991:libs/STM32F4xx_StdPeriph_Driver/src/stm32f4xx_flash.c ****     else 
 992:libs/STM32F4xx_StdPeriph_Driver/src/stm32f4xx_flash.c ****     {
 993:libs/STM32F4xx_StdPeriph_Driver/src/stm32f4xx_flash.c ****       if((FLASH->SR & (uint32_t)0xEF) != (uint32_t)0x00)
 1739              		.loc 1 993 0
 1740 0040 4FF47053 		mov	r3, #15360
 1741 0044 C4F20203 		movt	r3, 16386
 1742 0048 DB68     		ldr	r3, [r3, #12]
 1743 004a 03F0EF03 		and	r3, r3, #239
 1744 004e 002B     		cmp	r3, #0
 1745 0050 03D0     		beq	.L65
 994:libs/STM32F4xx_StdPeriph_Driver/src/stm32f4xx_flash.c ****       {
 995:libs/STM32F4xx_StdPeriph_Driver/src/stm32f4xx_flash.c ****         flashstatus = FLASH_ERROR_PROGRAM; 
 1746              		.loc 1 995 0
 1747 0052 4FF00603 		mov	r3, #6
 1748 0056 FB71     		strb	r3, [r7, #7]
 1749 0058 0FE0     		b	.L63
 1750              	.L65:
 996:libs/STM32F4xx_StdPeriph_Driver/src/stm32f4xx_flash.c ****       }
 997:libs/STM32F4xx_StdPeriph_Driver/src/stm32f4xx_flash.c ****       else
 998:libs/STM32F4xx_StdPeriph_Driver/src/stm32f4xx_flash.c ****       {
 999:libs/STM32F4xx_StdPeriph_Driver/src/stm32f4xx_flash.c ****         if((FLASH->SR & FLASH_FLAG_OPERR) != (uint32_t)0x00)
 1751              		.loc 1 999 0
 1752 005a 4FF47053 		mov	r3, #15360
 1753 005e C4F20203 		movt	r3, 16386
 1754 0062 DB68     		ldr	r3, [r3, #12]
 1755 0064 03F00203 		and	r3, r3, #2
 1756 0068 002B     		cmp	r3, #0
 1757 006a 03D0     		beq	.L66
1000:libs/STM32F4xx_StdPeriph_Driver/src/stm32f4xx_flash.c ****         {
1001:libs/STM32F4xx_StdPeriph_Driver/src/stm32f4xx_flash.c ****           flashstatus = FLASH_ERROR_OPERATION;
 1758              		.loc 1 1001 0
 1759 006c 4FF00703 		mov	r3, #7
 1760 0070 FB71     		strb	r3, [r7, #7]
 1761 0072 02E0     		b	.L63
 1762              	.L66:
1002:libs/STM32F4xx_StdPeriph_Driver/src/stm32f4xx_flash.c ****         }
1003:libs/STM32F4xx_StdPeriph_Driver/src/stm32f4xx_flash.c ****         else
1004:libs/STM32F4xx_StdPeriph_Driver/src/stm32f4xx_flash.c ****         {
1005:libs/STM32F4xx_StdPeriph_Driver/src/stm32f4xx_flash.c ****           flashstatus = FLASH_COMPLETE;
 1763              		.loc 1 1005 0
 1764 0074 4FF00803 		mov	r3, #8
 1765 0078 FB71     		strb	r3, [r7, #7]
 1766              	.L63:
1006:libs/STM32F4xx_StdPeriph_Driver/src/stm32f4xx_flash.c ****         }
1007:libs/STM32F4xx_StdPeriph_Driver/src/stm32f4xx_flash.c ****       }
1008:libs/STM32F4xx_StdPeriph_Driver/src/stm32f4xx_flash.c ****     }
1009:libs/STM32F4xx_StdPeriph_Driver/src/stm32f4xx_flash.c ****   }
1010:libs/STM32F4xx_StdPeriph_Driver/src/stm32f4xx_flash.c ****   /* Return the FLASH Status */
1011:libs/STM32F4xx_StdPeriph_Driver/src/stm32f4xx_flash.c ****   return flashstatus;
 1767              		.loc 1 1011 0
 1768 007a FB79     		ldrb	r3, [r7, #7]	@ zero_extendqisi2
1012:libs/STM32F4xx_StdPeriph_Driver/src/stm32f4xx_flash.c **** }
 1769              		.loc 1 1012 0
 1770 007c 1846     		mov	r0, r3
 1771 007e 07F10C07 		add	r7, r7, #12
 1772 0082 BD46     		mov	sp, r7
 1773 0084 80BC     		pop	{r7}
 1774 0086 7047     		bx	lr
 1775              		.cfi_endproc
 1776              	.LFE138:
 1778              		.section	.text.FLASH_WaitForLastOperation,"ax",%progbits
 1779              		.align	2
 1780              		.global	FLASH_WaitForLastOperation
 1781              		.thumb
 1782              		.thumb_func
 1784              	FLASH_WaitForLastOperation:
 1785              	.LFB139:
1013:libs/STM32F4xx_StdPeriph_Driver/src/stm32f4xx_flash.c **** 
1014:libs/STM32F4xx_StdPeriph_Driver/src/stm32f4xx_flash.c **** /**
1015:libs/STM32F4xx_StdPeriph_Driver/src/stm32f4xx_flash.c ****   * @brief  Waits for a FLASH operation to complete.
1016:libs/STM32F4xx_StdPeriph_Driver/src/stm32f4xx_flash.c ****   * @param  None
1017:libs/STM32F4xx_StdPeriph_Driver/src/stm32f4xx_flash.c ****   * @retval FLASH Status: The returned value can be: FLASH_BUSY, FLASH_ERROR_PROGRAM,
1018:libs/STM32F4xx_StdPeriph_Driver/src/stm32f4xx_flash.c ****   *                       FLASH_ERROR_WRP, FLASH_ERROR_OPERATION or FLASH_COMPLETE.
1019:libs/STM32F4xx_StdPeriph_Driver/src/stm32f4xx_flash.c ****   */
1020:libs/STM32F4xx_StdPeriph_Driver/src/stm32f4xx_flash.c **** FLASH_Status FLASH_WaitForLastOperation(void)
1021:libs/STM32F4xx_StdPeriph_Driver/src/stm32f4xx_flash.c **** { 
 1786              		.loc 1 1021 0
 1787              		.cfi_startproc
 1788              		@ args = 0, pretend = 0, frame = 8
 1789              		@ frame_needed = 1, uses_anonymous_args = 0
 1790 0000 80B5     		push	{r7, lr}
 1791              	.LCFI78:
 1792              		.cfi_def_cfa_offset 8
 1793              		.cfi_offset 14, -4
 1794              		.cfi_offset 7, -8
 1795 0002 82B0     		sub	sp, sp, #8
 1796              	.LCFI79:
 1797              		.cfi_def_cfa_offset 16
 1798 0004 00AF     		add	r7, sp, #0
 1799              	.LCFI80:
 1800              		.cfi_def_cfa_register 7
1022:libs/STM32F4xx_StdPeriph_Driver/src/stm32f4xx_flash.c ****   __IO FLASH_Status status = FLASH_COMPLETE;
 1801              		.loc 1 1022 0
 1802 0006 4FF00803 		mov	r3, #8
 1803 000a FB71     		strb	r3, [r7, #7]
1023:libs/STM32F4xx_StdPeriph_Driver/src/stm32f4xx_flash.c ****    
1024:libs/STM32F4xx_StdPeriph_Driver/src/stm32f4xx_flash.c ****   /* Check for the FLASH Status */
1025:libs/STM32F4xx_StdPeriph_Driver/src/stm32f4xx_flash.c ****   status = FLASH_GetStatus();
 1804              		.loc 1 1025 0
 1805 000c FFF7FEFF 		bl	FLASH_GetStatus
 1806 0010 0346     		mov	r3, r0
 1807 0012 FB71     		strb	r3, [r7, #7]
1026:libs/STM32F4xx_StdPeriph_Driver/src/stm32f4xx_flash.c **** 
1027:libs/STM32F4xx_StdPeriph_Driver/src/stm32f4xx_flash.c ****   /* Wait for the FLASH operation to complete by polling on BUSY flag to be reset.
1028:libs/STM32F4xx_StdPeriph_Driver/src/stm32f4xx_flash.c ****      Even if the FLASH operation fails, the BUSY flag will be reset and an error
1029:libs/STM32F4xx_StdPeriph_Driver/src/stm32f4xx_flash.c ****      flag will be set */
1030:libs/STM32F4xx_StdPeriph_Driver/src/stm32f4xx_flash.c ****   while(status == FLASH_BUSY)
 1808              		.loc 1 1030 0
 1809 0014 03E0     		b	.L68
 1810              	.L69:
1031:libs/STM32F4xx_StdPeriph_Driver/src/stm32f4xx_flash.c ****   {
1032:libs/STM32F4xx_StdPeriph_Driver/src/stm32f4xx_flash.c ****     status = FLASH_GetStatus();
 1811              		.loc 1 1032 0
 1812 0016 FFF7FEFF 		bl	FLASH_GetStatus
 1813 001a 0346     		mov	r3, r0
 1814 001c FB71     		strb	r3, [r7, #7]
 1815              	.L68:
1030:libs/STM32F4xx_StdPeriph_Driver/src/stm32f4xx_flash.c ****   while(status == FLASH_BUSY)
 1816              		.loc 1 1030 0 discriminator 1
 1817 001e FB79     		ldrb	r3, [r7, #7]
 1818 0020 DBB2     		uxtb	r3, r3
 1819 0022 012B     		cmp	r3, #1
 1820 0024 F7D0     		beq	.L69
1033:libs/STM32F4xx_StdPeriph_Driver/src/stm32f4xx_flash.c ****   }
1034:libs/STM32F4xx_StdPeriph_Driver/src/stm32f4xx_flash.c ****   /* Return the operation status */
1035:libs/STM32F4xx_StdPeriph_Driver/src/stm32f4xx_flash.c ****   return status;
 1821              		.loc 1 1035 0
 1822 0026 FB79     		ldrb	r3, [r7, #7]
 1823 0028 DBB2     		uxtb	r3, r3
1036:libs/STM32F4xx_StdPeriph_Driver/src/stm32f4xx_flash.c **** }
 1824              		.loc 1 1036 0
 1825 002a 1846     		mov	r0, r3
 1826 002c 07F10807 		add	r7, r7, #8
 1827 0030 BD46     		mov	sp, r7
 1828 0032 80BD     		pop	{r7, pc}
 1829              		.cfi_endproc
 1830              	.LFE139:
 1832              		.text
 1833              	.Letext0:
 1834              		.file 2 "/usr/local/csl/arm-2012.03/bin/../lib/gcc/arm-none-eabi/4.6.3/../../../../arm-none-eabi/i
 1835              		.file 3 "libs/Device/STM32F4xx/Include/stm32f4xx.h"
 1836              		.file 4 "libs/STM32F4xx_StdPeriph_Driver/inc/stm32f4xx_flash.h"
 1837              		.file 5 "libs/CMSIS/Include/core_cm4.h"