   1              		.syntax unified
   2              		.cpu cortex-m4
   3              		.eabi_attribute 27, 3
   4              		.fpu fpv4-sp-d16
   5              		.eabi_attribute 20, 1
   6              		.eabi_attribute 21, 1
   7              		.eabi_attribute 23, 3
   8              		.eabi_attribute 24, 1
   9              		.eabi_attribute 25, 1
  10              		.eabi_attribute 26, 1
  11              		.eabi_attribute 30, 6
  12              		.eabi_attribute 34, 1
  13              		.eabi_attribute 18, 4
  14              		.thumb
  15              		.file	"syscalls.c"
  16              		.text
  17              	.Ltext0:
  18              		.cfi_sections	.debug_frame
  19              		.global	__malloc_margin
  20              		.section	.data.__malloc_margin,"aw",%progbits
  21              		.align	2
  24              	__malloc_margin:
  25 0000 00010000 		.word	256
  26              		.comm	__brkval,4,4
  27              		.section	.text._exit,"ax",%progbits
  28              		.align	2
  29              		.global	_exit
  30              		.thumb
  31              		.thumb_func
  33              	_exit:
  34              	.LFB110:
  35              		.file 1 "src/syscalls.c"
   1:src/syscalls.c **** #include "syscalls.h"
   2:src/syscalls.c **** #include "uart.h"
   3:src/syscalls.c **** #include "stm32f4xx.h"
   4:src/syscalls.c **** #include "FreeRTOS.h"
   5:src/syscalls.c **** #include <unistd.h>
   6:src/syscalls.c **** #include <stdlib.h>
   7:src/syscalls.c **** #include <errno.h>
   8:src/syscalls.c **** #include <string.h>
   9:src/syscalls.c **** #include <sys/stat.h>
  10:src/syscalls.c **** #include <sys/time.h>
  11:src/syscalls.c **** 
  12:src/syscalls.c **** size_t   __malloc_margin = 256;
  13:src/syscalls.c **** char    *__brkval;
  14:src/syscalls.c **** 
  15:src/syscalls.c **** void _exit(int code)
  16:src/syscalls.c **** {
  36              		.loc 1 16 0
  37              		.cfi_startproc
  38              		@ args = 0, pretend = 0, frame = 8
  39              		@ frame_needed = 1, uses_anonymous_args = 0
  40              		@ link register save eliminated.
  41 0000 80B4     		push	{r7}
  42              	.LCFI0:
  43              		.cfi_def_cfa_offset 4
  44              		.cfi_offset 7, -4
  45 0002 83B0     		sub	sp, sp, #12
  46              	.LCFI1:
  47              		.cfi_def_cfa_offset 16
  48 0004 00AF     		add	r7, sp, #0
  49              	.LCFI2:
  50              		.cfi_def_cfa_register 7
  51 0006 7860     		str	r0, [r7, #4]
  52              	.L2:
  17:src/syscalls.c ****     for (;;);
  53              		.loc 1 17 0 discriminator 1
  54 0008 FEE7     		b	.L2
  55              		.cfi_endproc
  56              	.LFE110:
  58 000a 00BF     		.section	.text._read_r,"ax",%progbits
  59              		.align	2
  60              		.global	_read_r
  61              		.thumb
  62              		.thumb_func
  64              	_read_r:
  65              	.LFB111:
  18:src/syscalls.c **** }
  19:src/syscalls.c **** 
  20:src/syscalls.c **** 
  21:src/syscalls.c **** ssize_t _read_r(struct _reent *r, int fd, void *ptr, size_t len)
  22:src/syscalls.c **** {
  66              		.loc 1 22 0
  67              		.cfi_startproc
  68              		@ args = 0, pretend = 0, frame = 16
  69              		@ frame_needed = 1, uses_anonymous_args = 0
  70 0000 80B5     		push	{r7, lr}
  71              	.LCFI3:
  72              		.cfi_def_cfa_offset 8
  73              		.cfi_offset 14, -4
  74              		.cfi_offset 7, -8
  75 0002 84B0     		sub	sp, sp, #16
  76              	.LCFI4:
  77              		.cfi_def_cfa_offset 24
  78 0004 00AF     		add	r7, sp, #0
  79              	.LCFI5:
  80              		.cfi_def_cfa_register 7
  81 0006 F860     		str	r0, [r7, #12]
  82 0008 B960     		str	r1, [r7, #8]
  83 000a 7A60     		str	r2, [r7, #4]
  84 000c 3B60     		str	r3, [r7, #0]
  23:src/syscalls.c ****     return uart_read_r(r, fd, ptr, len);
  85              		.loc 1 23 0
  86 000e F868     		ldr	r0, [r7, #12]
  87 0010 B968     		ldr	r1, [r7, #8]
  88 0012 7A68     		ldr	r2, [r7, #4]
  89 0014 3B68     		ldr	r3, [r7, #0]
  90 0016 FFF7FEFF 		bl	uart_read_r
  91 001a 0346     		mov	r3, r0
  24:src/syscalls.c **** }
  92              		.loc 1 24 0
  93 001c 1846     		mov	r0, r3
  94 001e 07F11007 		add	r7, r7, #16
  95 0022 BD46     		mov	sp, r7
  96 0024 80BD     		pop	{r7, pc}
  97              		.cfi_endproc
  98              	.LFE111:
 100 0026 00BF     		.section	.text._write_r,"ax",%progbits
 101              		.align	2
 102              		.global	_write_r
 103              		.thumb
 104              		.thumb_func
 106              	_write_r:
 107              	.LFB112:
  25:src/syscalls.c **** 
  26:src/syscalls.c **** 
  27:src/syscalls.c **** ssize_t _write_r(struct _reent *r, int fd, const void *ptr, size_t len)
  28:src/syscalls.c **** {
 108              		.loc 1 28 0
 109              		.cfi_startproc
 110              		@ args = 0, pretend = 0, frame = 16
 111              		@ frame_needed = 1, uses_anonymous_args = 0
 112 0000 80B5     		push	{r7, lr}
 113              	.LCFI6:
 114              		.cfi_def_cfa_offset 8
 115              		.cfi_offset 14, -4
 116              		.cfi_offset 7, -8
 117 0002 84B0     		sub	sp, sp, #16
 118              	.LCFI7:
 119              		.cfi_def_cfa_offset 24
 120 0004 00AF     		add	r7, sp, #0
 121              	.LCFI8:
 122              		.cfi_def_cfa_register 7
 123 0006 F860     		str	r0, [r7, #12]
 124 0008 B960     		str	r1, [r7, #8]
 125 000a 7A60     		str	r2, [r7, #4]
 126 000c 3B60     		str	r3, [r7, #0]
  29:src/syscalls.c ****     return uart_write_r(r, fd, ptr, len);
 127              		.loc 1 29 0
 128 000e F868     		ldr	r0, [r7, #12]
 129 0010 B968     		ldr	r1, [r7, #8]
 130 0012 7A68     		ldr	r2, [r7, #4]
 131 0014 3B68     		ldr	r3, [r7, #0]
 132 0016 FFF7FEFF 		bl	uart_write_r
 133 001a 0346     		mov	r3, r0
  30:src/syscalls.c **** }
 134              		.loc 1 30 0
 135 001c 1846     		mov	r0, r3
 136 001e 07F11007 		add	r7, r7, #16
 137 0022 BD46     		mov	sp, r7
 138 0024 80BD     		pop	{r7, pc}
 139              		.cfi_endproc
 140              	.LFE112:
 142 0026 00BF     		.section	.text._lseek_r,"ax",%progbits
 143              		.align	2
 144              		.global	_lseek_r
 145              		.thumb
 146              		.thumb_func
 148              	_lseek_r:
 149              	.LFB113:
  31:src/syscalls.c **** 
  32:src/syscalls.c **** 
  33:src/syscalls.c **** off_t _lseek_r(struct _reent *r, int fd, _off_t ptr, int dir)
  34:src/syscalls.c **** {
 150              		.loc 1 34 0
 151              		.cfi_startproc
 152              		@ args = 0, pretend = 0, frame = 16
 153              		@ frame_needed = 1, uses_anonymous_args = 0
 154              		@ link register save eliminated.
 155 0000 80B4     		push	{r7}
 156              	.LCFI9:
 157              		.cfi_def_cfa_offset 4
 158              		.cfi_offset 7, -4
 159 0002 85B0     		sub	sp, sp, #20
 160              	.LCFI10:
 161              		.cfi_def_cfa_offset 24
 162 0004 00AF     		add	r7, sp, #0
 163              	.LCFI11:
 164              		.cfi_def_cfa_register 7
 165 0006 F860     		str	r0, [r7, #12]
 166 0008 B960     		str	r1, [r7, #8]
 167 000a 7A60     		str	r2, [r7, #4]
 168 000c 3B60     		str	r3, [r7, #0]
  35:src/syscalls.c ****     fd  = fd;
  36:src/syscalls.c ****     ptr = ptr;
  37:src/syscalls.c ****     dir = dir;
  38:src/syscalls.c ****     r->_errno = ENOSYS;
 169              		.loc 1 38 0
 170 000e FB68     		ldr	r3, [r7, #12]
 171 0010 4FF05802 		mov	r2, #88
 172 0014 1A60     		str	r2, [r3, #0]
  39:src/syscalls.c ****     return -1;
 173              		.loc 1 39 0
 174 0016 4FF0FF33 		mov	r3, #-1
  40:src/syscalls.c **** }
 175              		.loc 1 40 0
 176 001a 1846     		mov	r0, r3
 177 001c 07F11407 		add	r7, r7, #20
 178 0020 BD46     		mov	sp, r7
 179 0022 80BC     		pop	{r7}
 180 0024 7047     		bx	lr
 181              		.cfi_endproc
 182              	.LFE113:
 184 0026 00BF     		.section	.text._close_r,"ax",%progbits
 185              		.align	2
 186              		.global	_close_r
 187              		.thumb
 188              		.thumb_func
 190              	_close_r:
 191              	.LFB114:
  41:src/syscalls.c **** 
  42:src/syscalls.c **** 
  43:src/syscalls.c **** int _close_r(struct _reent *r, int fd)
  44:src/syscalls.c **** {
 192              		.loc 1 44 0
 193              		.cfi_startproc
 194              		@ args = 0, pretend = 0, frame = 8
 195              		@ frame_needed = 1, uses_anonymous_args = 0
 196              		@ link register save eliminated.
 197 0000 80B4     		push	{r7}
 198              	.LCFI12:
 199              		.cfi_def_cfa_offset 4
 200              		.cfi_offset 7, -4
 201 0002 83B0     		sub	sp, sp, #12
 202              	.LCFI13:
 203              		.cfi_def_cfa_offset 16
 204 0004 00AF     		add	r7, sp, #0
 205              	.LCFI14:
 206              		.cfi_def_cfa_register 7
 207 0006 7860     		str	r0, [r7, #4]
 208 0008 3960     		str	r1, [r7, #0]
  45:src/syscalls.c ****     fd = fd;
  46:src/syscalls.c ****     r->_errno = ENOSYS;
 209              		.loc 1 46 0
 210 000a 7B68     		ldr	r3, [r7, #4]
 211 000c 4FF05802 		mov	r2, #88
 212 0010 1A60     		str	r2, [r3, #0]
  47:src/syscalls.c ****     return -1;
 213              		.loc 1 47 0
 214 0012 4FF0FF33 		mov	r3, #-1
  48:src/syscalls.c **** }
 215              		.loc 1 48 0
 216 0016 1846     		mov	r0, r3
 217 0018 07F10C07 		add	r7, r7, #12
 218 001c BD46     		mov	sp, r7
 219 001e 80BC     		pop	{r7}
 220 0020 7047     		bx	lr
 221              		.cfi_endproc
 222              	.LFE114:
 224 0022 00BF     		.section	.text._fstat_r,"ax",%progbits
 225              		.align	2
 226              		.global	_fstat_r
 227              		.thumb
 228              		.thumb_func
 230              	_fstat_r:
 231              	.LFB115:
  49:src/syscalls.c **** 
  50:src/syscalls.c **** 
  51:src/syscalls.c **** int _fstat_r(struct _reent *r, int fd, struct stat *st)
  52:src/syscalls.c **** {
 232              		.loc 1 52 0
 233              		.cfi_startproc
 234              		@ args = 0, pretend = 0, frame = 16
 235              		@ frame_needed = 1, uses_anonymous_args = 0
 236              		@ link register save eliminated.
 237 0000 80B4     		push	{r7}
 238              	.LCFI15:
 239              		.cfi_def_cfa_offset 4
 240              		.cfi_offset 7, -4
 241 0002 85B0     		sub	sp, sp, #20
 242              	.LCFI16:
 243              		.cfi_def_cfa_offset 24
 244 0004 00AF     		add	r7, sp, #0
 245              	.LCFI17:
 246              		.cfi_def_cfa_register 7
 247 0006 F860     		str	r0, [r7, #12]
 248 0008 B960     		str	r1, [r7, #8]
 249 000a 7A60     		str	r2, [r7, #4]
  53:src/syscalls.c ****     if ((fd >= STDIN_FILENO) && (fd <= STDERR_FILENO)) {
 250              		.loc 1 53 0
 251 000c BB68     		ldr	r3, [r7, #8]
 252 000e 002B     		cmp	r3, #0
 253 0010 09DB     		blt	.L8
 254              		.loc 1 53 0 is_stmt 0 discriminator 1
 255 0012 BB68     		ldr	r3, [r7, #8]
 256 0014 022B     		cmp	r3, #2
 257 0016 06DC     		bgt	.L8
  54:src/syscalls.c ****       st->st_mode = S_IFCHR;
 258              		.loc 1 54 0 is_stmt 1
 259 0018 7B68     		ldr	r3, [r7, #4]
 260 001a 4FF40052 		mov	r2, #8192
 261 001e 5A60     		str	r2, [r3, #4]
  55:src/syscalls.c ****       return 0;
 262              		.loc 1 55 0
 263 0020 4FF00003 		mov	r3, #0
 264 0024 05E0     		b	.L9
 265              	.L8:
  56:src/syscalls.c ****     }
  57:src/syscalls.c **** 
  58:src/syscalls.c ****     r->_errno = ENOSYS;
 266              		.loc 1 58 0
 267 0026 FB68     		ldr	r3, [r7, #12]
 268 0028 4FF05802 		mov	r2, #88
 269 002c 1A60     		str	r2, [r3, #0]
  59:src/syscalls.c ****     return -1;
 270              		.loc 1 59 0
 271 002e 4FF0FF33 		mov	r3, #-1
 272              	.L9:
  60:src/syscalls.c **** }
 273              		.loc 1 60 0
 274 0032 1846     		mov	r0, r3
 275 0034 07F11407 		add	r7, r7, #20
 276 0038 BD46     		mov	sp, r7
 277 003a 80BC     		pop	{r7}
 278 003c 7047     		bx	lr
 279              		.cfi_endproc
 280              	.LFE115:
 282 003e 00BF     		.section	.text._isatty_r,"ax",%progbits
 283              		.align	2
 284              		.global	_isatty_r
 285              		.thumb
 286              		.thumb_func
 288              	_isatty_r:
 289              	.LFB116:
  61:src/syscalls.c **** 
  62:src/syscalls.c **** 
  63:src/syscalls.c **** int _isatty_r(struct _reent *r, int fd)
  64:src/syscalls.c **** {
 290              		.loc 1 64 0
 291              		.cfi_startproc
 292              		@ args = 0, pretend = 0, frame = 8
 293              		@ frame_needed = 1, uses_anonymous_args = 0
 294              		@ link register save eliminated.
 295 0000 80B4     		push	{r7}
 296              	.LCFI18:
 297              		.cfi_def_cfa_offset 4
 298              		.cfi_offset 7, -4
 299 0002 83B0     		sub	sp, sp, #12
 300              	.LCFI19:
 301              		.cfi_def_cfa_offset 16
 302 0004 00AF     		add	r7, sp, #0
 303              	.LCFI20:
 304              		.cfi_def_cfa_register 7
 305 0006 7860     		str	r0, [r7, #4]
 306 0008 3960     		str	r1, [r7, #0]
  65:src/syscalls.c ****     r  = r;
  66:src/syscalls.c ****     fd = fd;
  67:src/syscalls.c ****     return 1;
 307              		.loc 1 67 0
 308 000a 4FF00103 		mov	r3, #1
  68:src/syscalls.c **** }
 309              		.loc 1 68 0
 310 000e 1846     		mov	r0, r3
 311 0010 07F10C07 		add	r7, r7, #12
 312 0014 BD46     		mov	sp, r7
 313 0016 80BC     		pop	{r7}
 314 0018 7047     		bx	lr
 315              		.cfi_endproc
 316              	.LFE116:
 318 001a 00BF     		.section	.text._sbrk_r,"ax",%progbits
 319              		.align	2
 320              		.global	_sbrk_r
 321              		.thumb
 322              		.thumb_func
 324              	_sbrk_r:
 325              	.LFB117:
  69:src/syscalls.c **** 
  70:src/syscalls.c **** 
  71:src/syscalls.c **** void *_sbrk_r(struct _reent *r, ptrdiff_t incr)
  72:src/syscalls.c **** {
 326              		.loc 1 72 0
 327              		.cfi_startproc
 328              		@ args = 0, pretend = 0, frame = 16
 329              		@ frame_needed = 1, uses_anonymous_args = 0
 330              		@ link register save eliminated.
 331 0000 90B4     		push	{r4, r7}
 332              	.LCFI21:
 333              		.cfi_def_cfa_offset 8
 334              		.cfi_offset 7, -4
 335              		.cfi_offset 4, -8
 336 0002 84B0     		sub	sp, sp, #16
 337              	.LCFI22:
 338              		.cfi_def_cfa_offset 24
 339 0004 00AF     		add	r7, sp, #0
 340              	.LCFI23:
 341              		.cfi_def_cfa_register 7
 342 0006 7860     		str	r0, [r7, #4]
 343 0008 3960     		str	r1, [r7, #0]
  73:src/syscalls.c ****     extern char end;   // provided by the linker script
  74:src/syscalls.c **** 
  75:src/syscalls.c ****     if (__brkval == 0)
 344              		.loc 1 75 0
 345 000a 40F20003 		movw	r3, #:lower16:__brkval
 346 000e C0F20003 		movt	r3, #:upper16:__brkval
 347 0012 1B68     		ldr	r3, [r3, #0]
 348 0014 002B     		cmp	r3, #0
 349 0016 08D1     		bne	.L12
  76:src/syscalls.c ****         __brkval = &end;
 350              		.loc 1 76 0
 351 0018 40F20003 		movw	r3, #:lower16:__brkval
 352 001c C0F20003 		movt	r3, #:upper16:__brkval
 353 0020 40F20002 		movw	r2, #:lower16:end
 354 0024 C0F20002 		movt	r2, #:upper16:end
 355 0028 1A60     		str	r2, [r3, #0]
 356              	.L12:
  77:src/syscalls.c **** 
  78:src/syscalls.c ****     if (__brkval + incr > (char*)__get_MSP() - __malloc_margin) {
 357              		.loc 1 78 0
 358 002a 40F20003 		movw	r3, #:lower16:__brkval
 359 002e C0F20003 		movt	r3, #:upper16:__brkval
 360 0032 1A68     		ldr	r2, [r3, #0]
 361 0034 3B68     		ldr	r3, [r7, #0]
 362 0036 D218     		adds	r2, r2, r3
 363              	.LBB4:
 364              	.LBB5:
 365              		.file 2 "libs/CMSIS/Include/core_cmFunc.h"
   1:libs/CMSIS/Include/core_cmFunc.h **** /**************************************************************************//**
   2:libs/CMSIS/Include/core_cmFunc.h ****  * @file     core_cmFunc.h
   3:libs/CMSIS/Include/core_cmFunc.h ****  * @brief    CMSIS Cortex-M Core Function Access Header File
   4:libs/CMSIS/Include/core_cmFunc.h ****  * @version  V2.10
   5:libs/CMSIS/Include/core_cmFunc.h ****  * @date     26. July 2011
   6:libs/CMSIS/Include/core_cmFunc.h ****  *
   7:libs/CMSIS/Include/core_cmFunc.h ****  * @note
   8:libs/CMSIS/Include/core_cmFunc.h ****  * Copyright (C) 2009-2011 ARM Limited. All rights reserved.
   9:libs/CMSIS/Include/core_cmFunc.h ****  *
  10:libs/CMSIS/Include/core_cmFunc.h ****  * @par
  11:libs/CMSIS/Include/core_cmFunc.h ****  * ARM Limited (ARM) is supplying this software for use with Cortex-M 
  12:libs/CMSIS/Include/core_cmFunc.h ****  * processor based microcontrollers.  This file can be freely distributed 
  13:libs/CMSIS/Include/core_cmFunc.h ****  * within development tools that are supporting such ARM based processors. 
  14:libs/CMSIS/Include/core_cmFunc.h ****  *
  15:libs/CMSIS/Include/core_cmFunc.h ****  * @par
  16:libs/CMSIS/Include/core_cmFunc.h ****  * THIS SOFTWARE IS PROVIDED "AS IS".  NO WARRANTIES, WHETHER EXPRESS, IMPLIED
  17:libs/CMSIS/Include/core_cmFunc.h ****  * OR STATUTORY, INCLUDING, BUT NOT LIMITED TO, IMPLIED WARRANTIES OF
  18:libs/CMSIS/Include/core_cmFunc.h ****  * MERCHANTABILITY AND FITNESS FOR A PARTICULAR PURPOSE APPLY TO THIS SOFTWARE.
  19:libs/CMSIS/Include/core_cmFunc.h ****  * ARM SHALL NOT, IN ANY CIRCUMSTANCES, BE LIABLE FOR SPECIAL, INCIDENTAL, OR
  20:libs/CMSIS/Include/core_cmFunc.h ****  * CONSEQUENTIAL DAMAGES, FOR ANY REASON WHATSOEVER.
  21:libs/CMSIS/Include/core_cmFunc.h ****  *
  22:libs/CMSIS/Include/core_cmFunc.h ****  ******************************************************************************/
  23:libs/CMSIS/Include/core_cmFunc.h **** 
  24:libs/CMSIS/Include/core_cmFunc.h **** #ifndef __CORE_CMFUNC_H
  25:libs/CMSIS/Include/core_cmFunc.h **** #define __CORE_CMFUNC_H
  26:libs/CMSIS/Include/core_cmFunc.h **** 
  27:libs/CMSIS/Include/core_cmFunc.h **** 
  28:libs/CMSIS/Include/core_cmFunc.h **** /* ###########################  Core Function Access  ########################### */
  29:libs/CMSIS/Include/core_cmFunc.h **** /** \ingroup  CMSIS_Core_FunctionInterface   
  30:libs/CMSIS/Include/core_cmFunc.h ****     \defgroup CMSIS_Core_RegAccFunctions CMSIS Core Register Access Functions
  31:libs/CMSIS/Include/core_cmFunc.h ****   @{
  32:libs/CMSIS/Include/core_cmFunc.h ****  */
  33:libs/CMSIS/Include/core_cmFunc.h **** 
  34:libs/CMSIS/Include/core_cmFunc.h **** #if   defined ( __CC_ARM ) /*------------------RealView Compiler -----------------*/
  35:libs/CMSIS/Include/core_cmFunc.h **** /* ARM armcc specific functions */
  36:libs/CMSIS/Include/core_cmFunc.h **** 
  37:libs/CMSIS/Include/core_cmFunc.h **** #if (__ARMCC_VERSION < 400677)
  38:libs/CMSIS/Include/core_cmFunc.h ****   #error "Please use ARM Compiler Toolchain V4.0.677 or later!"
  39:libs/CMSIS/Include/core_cmFunc.h **** #endif
  40:libs/CMSIS/Include/core_cmFunc.h **** 
  41:libs/CMSIS/Include/core_cmFunc.h **** /* intrinsic void __enable_irq();     */
  42:libs/CMSIS/Include/core_cmFunc.h **** /* intrinsic void __disable_irq();    */
  43:libs/CMSIS/Include/core_cmFunc.h **** 
  44:libs/CMSIS/Include/core_cmFunc.h **** /** \brief  Get Control Register
  45:libs/CMSIS/Include/core_cmFunc.h **** 
  46:libs/CMSIS/Include/core_cmFunc.h ****     This function returns the content of the Control Register.
  47:libs/CMSIS/Include/core_cmFunc.h **** 
  48:libs/CMSIS/Include/core_cmFunc.h ****     \return               Control Register value
  49:libs/CMSIS/Include/core_cmFunc.h ****  */
  50:libs/CMSIS/Include/core_cmFunc.h **** static __INLINE uint32_t __get_CONTROL(void)
  51:libs/CMSIS/Include/core_cmFunc.h **** {
  52:libs/CMSIS/Include/core_cmFunc.h ****   register uint32_t __regControl         __ASM("control");
  53:libs/CMSIS/Include/core_cmFunc.h ****   return(__regControl);
  54:libs/CMSIS/Include/core_cmFunc.h **** }
  55:libs/CMSIS/Include/core_cmFunc.h **** 
  56:libs/CMSIS/Include/core_cmFunc.h **** 
  57:libs/CMSIS/Include/core_cmFunc.h **** /** \brief  Set Control Register
  58:libs/CMSIS/Include/core_cmFunc.h **** 
  59:libs/CMSIS/Include/core_cmFunc.h ****     This function writes the given value to the Control Register.
  60:libs/CMSIS/Include/core_cmFunc.h **** 
  61:libs/CMSIS/Include/core_cmFunc.h ****     \param [in]    control  Control Register value to set
  62:libs/CMSIS/Include/core_cmFunc.h ****  */
  63:libs/CMSIS/Include/core_cmFunc.h **** static __INLINE void __set_CONTROL(uint32_t control)
  64:libs/CMSIS/Include/core_cmFunc.h **** {
  65:libs/CMSIS/Include/core_cmFunc.h ****   register uint32_t __regControl         __ASM("control");
  66:libs/CMSIS/Include/core_cmFunc.h ****   __regControl = control;
  67:libs/CMSIS/Include/core_cmFunc.h **** }
  68:libs/CMSIS/Include/core_cmFunc.h **** 
  69:libs/CMSIS/Include/core_cmFunc.h **** 
  70:libs/CMSIS/Include/core_cmFunc.h **** /** \brief  Get ISPR Register
  71:libs/CMSIS/Include/core_cmFunc.h **** 
  72:libs/CMSIS/Include/core_cmFunc.h ****     This function returns the content of the ISPR Register.
  73:libs/CMSIS/Include/core_cmFunc.h **** 
  74:libs/CMSIS/Include/core_cmFunc.h ****     \return               ISPR Register value
  75:libs/CMSIS/Include/core_cmFunc.h ****  */
  76:libs/CMSIS/Include/core_cmFunc.h **** static __INLINE uint32_t __get_IPSR(void)
  77:libs/CMSIS/Include/core_cmFunc.h **** {
  78:libs/CMSIS/Include/core_cmFunc.h ****   register uint32_t __regIPSR          __ASM("ipsr");
  79:libs/CMSIS/Include/core_cmFunc.h ****   return(__regIPSR);
  80:libs/CMSIS/Include/core_cmFunc.h **** }
  81:libs/CMSIS/Include/core_cmFunc.h **** 
  82:libs/CMSIS/Include/core_cmFunc.h **** 
  83:libs/CMSIS/Include/core_cmFunc.h **** /** \brief  Get APSR Register
  84:libs/CMSIS/Include/core_cmFunc.h **** 
  85:libs/CMSIS/Include/core_cmFunc.h ****     This function returns the content of the APSR Register.
  86:libs/CMSIS/Include/core_cmFunc.h **** 
  87:libs/CMSIS/Include/core_cmFunc.h ****     \return               APSR Register value
  88:libs/CMSIS/Include/core_cmFunc.h ****  */
  89:libs/CMSIS/Include/core_cmFunc.h **** static __INLINE uint32_t __get_APSR(void)
  90:libs/CMSIS/Include/core_cmFunc.h **** {
  91:libs/CMSIS/Include/core_cmFunc.h ****   register uint32_t __regAPSR          __ASM("apsr");
  92:libs/CMSIS/Include/core_cmFunc.h ****   return(__regAPSR);
  93:libs/CMSIS/Include/core_cmFunc.h **** }
  94:libs/CMSIS/Include/core_cmFunc.h **** 
  95:libs/CMSIS/Include/core_cmFunc.h **** 
  96:libs/CMSIS/Include/core_cmFunc.h **** /** \brief  Get xPSR Register
  97:libs/CMSIS/Include/core_cmFunc.h **** 
  98:libs/CMSIS/Include/core_cmFunc.h ****     This function returns the content of the xPSR Register.
  99:libs/CMSIS/Include/core_cmFunc.h **** 
 100:libs/CMSIS/Include/core_cmFunc.h ****     \return               xPSR Register value
 101:libs/CMSIS/Include/core_cmFunc.h ****  */
 102:libs/CMSIS/Include/core_cmFunc.h **** static __INLINE uint32_t __get_xPSR(void)
 103:libs/CMSIS/Include/core_cmFunc.h **** {
 104:libs/CMSIS/Include/core_cmFunc.h ****   register uint32_t __regXPSR          __ASM("xpsr");
 105:libs/CMSIS/Include/core_cmFunc.h ****   return(__regXPSR);
 106:libs/CMSIS/Include/core_cmFunc.h **** }
 107:libs/CMSIS/Include/core_cmFunc.h **** 
 108:libs/CMSIS/Include/core_cmFunc.h **** 
 109:libs/CMSIS/Include/core_cmFunc.h **** /** \brief  Get Process Stack Pointer
 110:libs/CMSIS/Include/core_cmFunc.h **** 
 111:libs/CMSIS/Include/core_cmFunc.h ****     This function returns the current value of the Process Stack Pointer (PSP).
 112:libs/CMSIS/Include/core_cmFunc.h **** 
 113:libs/CMSIS/Include/core_cmFunc.h ****     \return               PSP Register value
 114:libs/CMSIS/Include/core_cmFunc.h ****  */
 115:libs/CMSIS/Include/core_cmFunc.h **** static __INLINE uint32_t __get_PSP(void)
 116:libs/CMSIS/Include/core_cmFunc.h **** {
 117:libs/CMSIS/Include/core_cmFunc.h ****   register uint32_t __regProcessStackPointer  __ASM("psp");
 118:libs/CMSIS/Include/core_cmFunc.h ****   return(__regProcessStackPointer);
 119:libs/CMSIS/Include/core_cmFunc.h **** }
 120:libs/CMSIS/Include/core_cmFunc.h **** 
 121:libs/CMSIS/Include/core_cmFunc.h **** 
 122:libs/CMSIS/Include/core_cmFunc.h **** /** \brief  Set Process Stack Pointer
 123:libs/CMSIS/Include/core_cmFunc.h **** 
 124:libs/CMSIS/Include/core_cmFunc.h ****     This function assigns the given value to the Process Stack Pointer (PSP).
 125:libs/CMSIS/Include/core_cmFunc.h **** 
 126:libs/CMSIS/Include/core_cmFunc.h ****     \param [in]    topOfProcStack  Process Stack Pointer value to set
 127:libs/CMSIS/Include/core_cmFunc.h ****  */
 128:libs/CMSIS/Include/core_cmFunc.h **** static __INLINE void __set_PSP(uint32_t topOfProcStack)
 129:libs/CMSIS/Include/core_cmFunc.h **** {
 130:libs/CMSIS/Include/core_cmFunc.h ****   register uint32_t __regProcessStackPointer  __ASM("psp");
 131:libs/CMSIS/Include/core_cmFunc.h ****   __regProcessStackPointer = topOfProcStack;
 132:libs/CMSIS/Include/core_cmFunc.h **** }
 133:libs/CMSIS/Include/core_cmFunc.h **** 
 134:libs/CMSIS/Include/core_cmFunc.h **** 
 135:libs/CMSIS/Include/core_cmFunc.h **** /** \brief  Get Main Stack Pointer
 136:libs/CMSIS/Include/core_cmFunc.h **** 
 137:libs/CMSIS/Include/core_cmFunc.h ****     This function returns the current value of the Main Stack Pointer (MSP).
 138:libs/CMSIS/Include/core_cmFunc.h **** 
 139:libs/CMSIS/Include/core_cmFunc.h ****     \return               MSP Register value
 140:libs/CMSIS/Include/core_cmFunc.h ****  */
 141:libs/CMSIS/Include/core_cmFunc.h **** static __INLINE uint32_t __get_MSP(void)
 142:libs/CMSIS/Include/core_cmFunc.h **** {
 143:libs/CMSIS/Include/core_cmFunc.h ****   register uint32_t __regMainStackPointer     __ASM("msp");
 144:libs/CMSIS/Include/core_cmFunc.h ****   return(__regMainStackPointer);
 145:libs/CMSIS/Include/core_cmFunc.h **** }
 146:libs/CMSIS/Include/core_cmFunc.h **** 
 147:libs/CMSIS/Include/core_cmFunc.h **** 
 148:libs/CMSIS/Include/core_cmFunc.h **** /** \brief  Set Main Stack Pointer
 149:libs/CMSIS/Include/core_cmFunc.h **** 
 150:libs/CMSIS/Include/core_cmFunc.h ****     This function assigns the given value to the Main Stack Pointer (MSP).
 151:libs/CMSIS/Include/core_cmFunc.h **** 
 152:libs/CMSIS/Include/core_cmFunc.h ****     \param [in]    topOfMainStack  Main Stack Pointer value to set
 153:libs/CMSIS/Include/core_cmFunc.h ****  */
 154:libs/CMSIS/Include/core_cmFunc.h **** static __INLINE void __set_MSP(uint32_t topOfMainStack)
 155:libs/CMSIS/Include/core_cmFunc.h **** {
 156:libs/CMSIS/Include/core_cmFunc.h ****   register uint32_t __regMainStackPointer     __ASM("msp");
 157:libs/CMSIS/Include/core_cmFunc.h ****   __regMainStackPointer = topOfMainStack;
 158:libs/CMSIS/Include/core_cmFunc.h **** }
 159:libs/CMSIS/Include/core_cmFunc.h **** 
 160:libs/CMSIS/Include/core_cmFunc.h **** 
 161:libs/CMSIS/Include/core_cmFunc.h **** /** \brief  Get Priority Mask
 162:libs/CMSIS/Include/core_cmFunc.h **** 
 163:libs/CMSIS/Include/core_cmFunc.h ****     This function returns the current state of the priority mask bit from the Priority Mask Registe
 164:libs/CMSIS/Include/core_cmFunc.h **** 
 165:libs/CMSIS/Include/core_cmFunc.h ****     \return               Priority Mask value
 166:libs/CMSIS/Include/core_cmFunc.h ****  */
 167:libs/CMSIS/Include/core_cmFunc.h **** static __INLINE uint32_t __get_PRIMASK(void)
 168:libs/CMSIS/Include/core_cmFunc.h **** {
 169:libs/CMSIS/Include/core_cmFunc.h ****   register uint32_t __regPriMask         __ASM("primask");
 170:libs/CMSIS/Include/core_cmFunc.h ****   return(__regPriMask);
 171:libs/CMSIS/Include/core_cmFunc.h **** }
 172:libs/CMSIS/Include/core_cmFunc.h **** 
 173:libs/CMSIS/Include/core_cmFunc.h **** 
 174:libs/CMSIS/Include/core_cmFunc.h **** /** \brief  Set Priority Mask
 175:libs/CMSIS/Include/core_cmFunc.h **** 
 176:libs/CMSIS/Include/core_cmFunc.h ****     This function assigns the given value to the Priority Mask Register.
 177:libs/CMSIS/Include/core_cmFunc.h **** 
 178:libs/CMSIS/Include/core_cmFunc.h ****     \param [in]    priMask  Priority Mask
 179:libs/CMSIS/Include/core_cmFunc.h ****  */
 180:libs/CMSIS/Include/core_cmFunc.h **** static __INLINE void __set_PRIMASK(uint32_t priMask)
 181:libs/CMSIS/Include/core_cmFunc.h **** {
 182:libs/CMSIS/Include/core_cmFunc.h ****   register uint32_t __regPriMask         __ASM("primask");
 183:libs/CMSIS/Include/core_cmFunc.h ****   __regPriMask = (priMask);
 184:libs/CMSIS/Include/core_cmFunc.h **** }
 185:libs/CMSIS/Include/core_cmFunc.h ****  
 186:libs/CMSIS/Include/core_cmFunc.h **** 
 187:libs/CMSIS/Include/core_cmFunc.h **** #if       (__CORTEX_M >= 0x03)
 188:libs/CMSIS/Include/core_cmFunc.h **** 
 189:libs/CMSIS/Include/core_cmFunc.h **** /** \brief  Enable FIQ
 190:libs/CMSIS/Include/core_cmFunc.h **** 
 191:libs/CMSIS/Include/core_cmFunc.h ****     This function enables FIQ interrupts by clearing the F-bit in the CPSR.
 192:libs/CMSIS/Include/core_cmFunc.h ****     Can only be executed in Privileged modes.
 193:libs/CMSIS/Include/core_cmFunc.h ****  */
 194:libs/CMSIS/Include/core_cmFunc.h **** #define __enable_fault_irq                __enable_fiq
 195:libs/CMSIS/Include/core_cmFunc.h **** 
 196:libs/CMSIS/Include/core_cmFunc.h **** 
 197:libs/CMSIS/Include/core_cmFunc.h **** /** \brief  Disable FIQ
 198:libs/CMSIS/Include/core_cmFunc.h **** 
 199:libs/CMSIS/Include/core_cmFunc.h ****     This function disables FIQ interrupts by setting the F-bit in the CPSR.
 200:libs/CMSIS/Include/core_cmFunc.h ****     Can only be executed in Privileged modes.
 201:libs/CMSIS/Include/core_cmFunc.h ****  */
 202:libs/CMSIS/Include/core_cmFunc.h **** #define __disable_fault_irq               __disable_fiq
 203:libs/CMSIS/Include/core_cmFunc.h **** 
 204:libs/CMSIS/Include/core_cmFunc.h **** 
 205:libs/CMSIS/Include/core_cmFunc.h **** /** \brief  Get Base Priority
 206:libs/CMSIS/Include/core_cmFunc.h **** 
 207:libs/CMSIS/Include/core_cmFunc.h ****     This function returns the current value of the Base Priority register.
 208:libs/CMSIS/Include/core_cmFunc.h **** 
 209:libs/CMSIS/Include/core_cmFunc.h ****     \return               Base Priority register value
 210:libs/CMSIS/Include/core_cmFunc.h ****  */
 211:libs/CMSIS/Include/core_cmFunc.h **** static __INLINE uint32_t  __get_BASEPRI(void)
 212:libs/CMSIS/Include/core_cmFunc.h **** {
 213:libs/CMSIS/Include/core_cmFunc.h ****   register uint32_t __regBasePri         __ASM("basepri");
 214:libs/CMSIS/Include/core_cmFunc.h ****   return(__regBasePri);
 215:libs/CMSIS/Include/core_cmFunc.h **** }
 216:libs/CMSIS/Include/core_cmFunc.h **** 
 217:libs/CMSIS/Include/core_cmFunc.h **** 
 218:libs/CMSIS/Include/core_cmFunc.h **** /** \brief  Set Base Priority
 219:libs/CMSIS/Include/core_cmFunc.h **** 
 220:libs/CMSIS/Include/core_cmFunc.h ****     This function assigns the given value to the Base Priority register.
 221:libs/CMSIS/Include/core_cmFunc.h **** 
 222:libs/CMSIS/Include/core_cmFunc.h ****     \param [in]    basePri  Base Priority value to set
 223:libs/CMSIS/Include/core_cmFunc.h ****  */
 224:libs/CMSIS/Include/core_cmFunc.h **** static __INLINE void __set_BASEPRI(uint32_t basePri)
 225:libs/CMSIS/Include/core_cmFunc.h **** {
 226:libs/CMSIS/Include/core_cmFunc.h ****   register uint32_t __regBasePri         __ASM("basepri");
 227:libs/CMSIS/Include/core_cmFunc.h ****   __regBasePri = (basePri & 0xff);
 228:libs/CMSIS/Include/core_cmFunc.h **** }
 229:libs/CMSIS/Include/core_cmFunc.h ****  
 230:libs/CMSIS/Include/core_cmFunc.h **** 
 231:libs/CMSIS/Include/core_cmFunc.h **** /** \brief  Get Fault Mask
 232:libs/CMSIS/Include/core_cmFunc.h **** 
 233:libs/CMSIS/Include/core_cmFunc.h ****     This function returns the current value of the Fault Mask register.
 234:libs/CMSIS/Include/core_cmFunc.h **** 
 235:libs/CMSIS/Include/core_cmFunc.h ****     \return               Fault Mask register value
 236:libs/CMSIS/Include/core_cmFunc.h ****  */
 237:libs/CMSIS/Include/core_cmFunc.h **** static __INLINE uint32_t __get_FAULTMASK(void)
 238:libs/CMSIS/Include/core_cmFunc.h **** {
 239:libs/CMSIS/Include/core_cmFunc.h ****   register uint32_t __regFaultMask       __ASM("faultmask");
 240:libs/CMSIS/Include/core_cmFunc.h ****   return(__regFaultMask);
 241:libs/CMSIS/Include/core_cmFunc.h **** }
 242:libs/CMSIS/Include/core_cmFunc.h **** 
 243:libs/CMSIS/Include/core_cmFunc.h **** 
 244:libs/CMSIS/Include/core_cmFunc.h **** /** \brief  Set Fault Mask
 245:libs/CMSIS/Include/core_cmFunc.h **** 
 246:libs/CMSIS/Include/core_cmFunc.h ****     This function assigns the given value to the Fault Mask register.
 247:libs/CMSIS/Include/core_cmFunc.h **** 
 248:libs/CMSIS/Include/core_cmFunc.h ****     \param [in]    faultMask  Fault Mask value to set
 249:libs/CMSIS/Include/core_cmFunc.h ****  */
 250:libs/CMSIS/Include/core_cmFunc.h **** static __INLINE void __set_FAULTMASK(uint32_t faultMask)
 251:libs/CMSIS/Include/core_cmFunc.h **** {
 252:libs/CMSIS/Include/core_cmFunc.h ****   register uint32_t __regFaultMask       __ASM("faultmask");
 253:libs/CMSIS/Include/core_cmFunc.h ****   __regFaultMask = (faultMask & (uint32_t)1);
 254:libs/CMSIS/Include/core_cmFunc.h **** }
 255:libs/CMSIS/Include/core_cmFunc.h **** 
 256:libs/CMSIS/Include/core_cmFunc.h **** #endif /* (__CORTEX_M >= 0x03) */
 257:libs/CMSIS/Include/core_cmFunc.h **** 
 258:libs/CMSIS/Include/core_cmFunc.h **** 
 259:libs/CMSIS/Include/core_cmFunc.h **** #if       (__CORTEX_M == 0x04)
 260:libs/CMSIS/Include/core_cmFunc.h **** 
 261:libs/CMSIS/Include/core_cmFunc.h **** /** \brief  Get FPSCR
 262:libs/CMSIS/Include/core_cmFunc.h **** 
 263:libs/CMSIS/Include/core_cmFunc.h ****     This function returns the current value of the Floating Point Status/Control register.
 264:libs/CMSIS/Include/core_cmFunc.h **** 
 265:libs/CMSIS/Include/core_cmFunc.h ****     \return               Floating Point Status/Control register value
 266:libs/CMSIS/Include/core_cmFunc.h ****  */
 267:libs/CMSIS/Include/core_cmFunc.h **** static __INLINE uint32_t __get_FPSCR(void)
 268:libs/CMSIS/Include/core_cmFunc.h **** {
 269:libs/CMSIS/Include/core_cmFunc.h **** #if (__FPU_PRESENT == 1) && (__FPU_USED == 1)
 270:libs/CMSIS/Include/core_cmFunc.h ****   register uint32_t __regfpscr         __ASM("fpscr");
 271:libs/CMSIS/Include/core_cmFunc.h ****   return(__regfpscr);
 272:libs/CMSIS/Include/core_cmFunc.h **** #else
 273:libs/CMSIS/Include/core_cmFunc.h ****    return(0);
 274:libs/CMSIS/Include/core_cmFunc.h **** #endif
 275:libs/CMSIS/Include/core_cmFunc.h **** }
 276:libs/CMSIS/Include/core_cmFunc.h **** 
 277:libs/CMSIS/Include/core_cmFunc.h **** 
 278:libs/CMSIS/Include/core_cmFunc.h **** /** \brief  Set FPSCR
 279:libs/CMSIS/Include/core_cmFunc.h **** 
 280:libs/CMSIS/Include/core_cmFunc.h ****     This function assigns the given value to the Floating Point Status/Control register.
 281:libs/CMSIS/Include/core_cmFunc.h **** 
 282:libs/CMSIS/Include/core_cmFunc.h ****     \param [in]    fpscr  Floating Point Status/Control value to set
 283:libs/CMSIS/Include/core_cmFunc.h ****  */
 284:libs/CMSIS/Include/core_cmFunc.h **** static __INLINE void __set_FPSCR(uint32_t fpscr)
 285:libs/CMSIS/Include/core_cmFunc.h **** {
 286:libs/CMSIS/Include/core_cmFunc.h **** #if (__FPU_PRESENT == 1) && (__FPU_USED == 1)
 287:libs/CMSIS/Include/core_cmFunc.h ****   register uint32_t __regfpscr         __ASM("fpscr");
 288:libs/CMSIS/Include/core_cmFunc.h ****   __regfpscr = (fpscr);
 289:libs/CMSIS/Include/core_cmFunc.h **** #endif
 290:libs/CMSIS/Include/core_cmFunc.h **** }
 291:libs/CMSIS/Include/core_cmFunc.h **** 
 292:libs/CMSIS/Include/core_cmFunc.h **** #endif /* (__CORTEX_M == 0x04) */
 293:libs/CMSIS/Include/core_cmFunc.h **** 
 294:libs/CMSIS/Include/core_cmFunc.h **** 
 295:libs/CMSIS/Include/core_cmFunc.h **** #elif defined ( __ICCARM__ ) /*------------------ ICC Compiler -------------------*/
 296:libs/CMSIS/Include/core_cmFunc.h **** /* IAR iccarm specific functions */
 297:libs/CMSIS/Include/core_cmFunc.h **** 
 298:libs/CMSIS/Include/core_cmFunc.h **** #include <cmsis_iar.h>
 299:libs/CMSIS/Include/core_cmFunc.h **** 
 300:libs/CMSIS/Include/core_cmFunc.h **** #elif defined ( __GNUC__ ) /*------------------ GNU Compiler ---------------------*/
 301:libs/CMSIS/Include/core_cmFunc.h **** /* GNU gcc specific functions */
 302:libs/CMSIS/Include/core_cmFunc.h **** 
 303:libs/CMSIS/Include/core_cmFunc.h **** /** \brief  Enable IRQ Interrupts
 304:libs/CMSIS/Include/core_cmFunc.h **** 
 305:libs/CMSIS/Include/core_cmFunc.h ****   This function enables IRQ interrupts by clearing the I-bit in the CPSR.
 306:libs/CMSIS/Include/core_cmFunc.h ****   Can only be executed in Privileged modes.
 307:libs/CMSIS/Include/core_cmFunc.h ****  */
 308:libs/CMSIS/Include/core_cmFunc.h **** __attribute__( ( always_inline ) ) static __INLINE void __enable_irq(void)
 309:libs/CMSIS/Include/core_cmFunc.h **** {
 310:libs/CMSIS/Include/core_cmFunc.h ****   __ASM volatile ("cpsie i");
 311:libs/CMSIS/Include/core_cmFunc.h **** }
 312:libs/CMSIS/Include/core_cmFunc.h **** 
 313:libs/CMSIS/Include/core_cmFunc.h **** 
 314:libs/CMSIS/Include/core_cmFunc.h **** /** \brief  Disable IRQ Interrupts
 315:libs/CMSIS/Include/core_cmFunc.h **** 
 316:libs/CMSIS/Include/core_cmFunc.h ****   This function disables IRQ interrupts by setting the I-bit in the CPSR.
 317:libs/CMSIS/Include/core_cmFunc.h ****   Can only be executed in Privileged modes.
 318:libs/CMSIS/Include/core_cmFunc.h ****  */
 319:libs/CMSIS/Include/core_cmFunc.h **** __attribute__( ( always_inline ) ) static __INLINE void __disable_irq(void)
 320:libs/CMSIS/Include/core_cmFunc.h **** {
 321:libs/CMSIS/Include/core_cmFunc.h ****   __ASM volatile ("cpsid i");
 322:libs/CMSIS/Include/core_cmFunc.h **** }
 323:libs/CMSIS/Include/core_cmFunc.h **** 
 324:libs/CMSIS/Include/core_cmFunc.h **** 
 325:libs/CMSIS/Include/core_cmFunc.h **** /** \brief  Get Control Register
 326:libs/CMSIS/Include/core_cmFunc.h **** 
 327:libs/CMSIS/Include/core_cmFunc.h ****     This function returns the content of the Control Register.
 328:libs/CMSIS/Include/core_cmFunc.h **** 
 329:libs/CMSIS/Include/core_cmFunc.h ****     \return               Control Register value
 330:libs/CMSIS/Include/core_cmFunc.h ****  */
 331:libs/CMSIS/Include/core_cmFunc.h **** __attribute__( ( always_inline ) ) static __INLINE uint32_t __get_CONTROL(void)
 332:libs/CMSIS/Include/core_cmFunc.h **** {
 333:libs/CMSIS/Include/core_cmFunc.h ****   uint32_t result;
 334:libs/CMSIS/Include/core_cmFunc.h **** 
 335:libs/CMSIS/Include/core_cmFunc.h ****   __ASM volatile ("MRS %0, control" : "=r" (result) );
 336:libs/CMSIS/Include/core_cmFunc.h ****   return(result);
 337:libs/CMSIS/Include/core_cmFunc.h **** }
 338:libs/CMSIS/Include/core_cmFunc.h **** 
 339:libs/CMSIS/Include/core_cmFunc.h **** 
 340:libs/CMSIS/Include/core_cmFunc.h **** /** \brief  Set Control Register
 341:libs/CMSIS/Include/core_cmFunc.h **** 
 342:libs/CMSIS/Include/core_cmFunc.h ****     This function writes the given value to the Control Register.
 343:libs/CMSIS/Include/core_cmFunc.h **** 
 344:libs/CMSIS/Include/core_cmFunc.h ****     \param [in]    control  Control Register value to set
 345:libs/CMSIS/Include/core_cmFunc.h ****  */
 346:libs/CMSIS/Include/core_cmFunc.h **** __attribute__( ( always_inline ) ) static __INLINE void __set_CONTROL(uint32_t control)
 347:libs/CMSIS/Include/core_cmFunc.h **** {
 348:libs/CMSIS/Include/core_cmFunc.h ****   __ASM volatile ("MSR control, %0" : : "r" (control) );
 349:libs/CMSIS/Include/core_cmFunc.h **** }
 350:libs/CMSIS/Include/core_cmFunc.h **** 
 351:libs/CMSIS/Include/core_cmFunc.h **** 
 352:libs/CMSIS/Include/core_cmFunc.h **** /** \brief  Get ISPR Register
 353:libs/CMSIS/Include/core_cmFunc.h **** 
 354:libs/CMSIS/Include/core_cmFunc.h ****     This function returns the content of the ISPR Register.
 355:libs/CMSIS/Include/core_cmFunc.h **** 
 356:libs/CMSIS/Include/core_cmFunc.h ****     \return               ISPR Register value
 357:libs/CMSIS/Include/core_cmFunc.h ****  */
 358:libs/CMSIS/Include/core_cmFunc.h **** __attribute__( ( always_inline ) ) static __INLINE uint32_t __get_IPSR(void)
 359:libs/CMSIS/Include/core_cmFunc.h **** {
 360:libs/CMSIS/Include/core_cmFunc.h ****   uint32_t result;
 361:libs/CMSIS/Include/core_cmFunc.h **** 
 362:libs/CMSIS/Include/core_cmFunc.h ****   __ASM volatile ("MRS %0, ipsr" : "=r" (result) );
 363:libs/CMSIS/Include/core_cmFunc.h ****   return(result);
 364:libs/CMSIS/Include/core_cmFunc.h **** }
 365:libs/CMSIS/Include/core_cmFunc.h **** 
 366:libs/CMSIS/Include/core_cmFunc.h **** 
 367:libs/CMSIS/Include/core_cmFunc.h **** /** \brief  Get APSR Register
 368:libs/CMSIS/Include/core_cmFunc.h **** 
 369:libs/CMSIS/Include/core_cmFunc.h ****     This function returns the content of the APSR Register.
 370:libs/CMSIS/Include/core_cmFunc.h **** 
 371:libs/CMSIS/Include/core_cmFunc.h ****     \return               APSR Register value
 372:libs/CMSIS/Include/core_cmFunc.h ****  */
 373:libs/CMSIS/Include/core_cmFunc.h **** __attribute__( ( always_inline ) ) static __INLINE uint32_t __get_APSR(void)
 374:libs/CMSIS/Include/core_cmFunc.h **** {
 375:libs/CMSIS/Include/core_cmFunc.h ****   uint32_t result;
 376:libs/CMSIS/Include/core_cmFunc.h **** 
 377:libs/CMSIS/Include/core_cmFunc.h ****   __ASM volatile ("MRS %0, apsr" : "=r" (result) );
 378:libs/CMSIS/Include/core_cmFunc.h ****   return(result);
 379:libs/CMSIS/Include/core_cmFunc.h **** }
 380:libs/CMSIS/Include/core_cmFunc.h **** 
 381:libs/CMSIS/Include/core_cmFunc.h **** 
 382:libs/CMSIS/Include/core_cmFunc.h **** /** \brief  Get xPSR Register
 383:libs/CMSIS/Include/core_cmFunc.h **** 
 384:libs/CMSIS/Include/core_cmFunc.h ****     This function returns the content of the xPSR Register.
 385:libs/CMSIS/Include/core_cmFunc.h **** 
 386:libs/CMSIS/Include/core_cmFunc.h ****     \return               xPSR Register value
 387:libs/CMSIS/Include/core_cmFunc.h ****  */
 388:libs/CMSIS/Include/core_cmFunc.h **** __attribute__( ( always_inline ) ) static __INLINE uint32_t __get_xPSR(void)
 389:libs/CMSIS/Include/core_cmFunc.h **** {
 390:libs/CMSIS/Include/core_cmFunc.h ****   uint32_t result;
 391:libs/CMSIS/Include/core_cmFunc.h **** 
 392:libs/CMSIS/Include/core_cmFunc.h ****   __ASM volatile ("MRS %0, xpsr" : "=r" (result) );
 393:libs/CMSIS/Include/core_cmFunc.h ****   return(result);
 394:libs/CMSIS/Include/core_cmFunc.h **** }
 395:libs/CMSIS/Include/core_cmFunc.h **** 
 396:libs/CMSIS/Include/core_cmFunc.h **** 
 397:libs/CMSIS/Include/core_cmFunc.h **** /** \brief  Get Process Stack Pointer
 398:libs/CMSIS/Include/core_cmFunc.h **** 
 399:libs/CMSIS/Include/core_cmFunc.h ****     This function returns the current value of the Process Stack Pointer (PSP).
 400:libs/CMSIS/Include/core_cmFunc.h **** 
 401:libs/CMSIS/Include/core_cmFunc.h ****     \return               PSP Register value
 402:libs/CMSIS/Include/core_cmFunc.h ****  */
 403:libs/CMSIS/Include/core_cmFunc.h **** __attribute__( ( always_inline ) ) static __INLINE uint32_t __get_PSP(void)
 404:libs/CMSIS/Include/core_cmFunc.h **** {
 405:libs/CMSIS/Include/core_cmFunc.h ****   register uint32_t result;
 406:libs/CMSIS/Include/core_cmFunc.h **** 
 407:libs/CMSIS/Include/core_cmFunc.h ****   __ASM volatile ("MRS %0, psp\n"  : "=r" (result) );
 408:libs/CMSIS/Include/core_cmFunc.h ****   return(result);
 409:libs/CMSIS/Include/core_cmFunc.h **** }
 410:libs/CMSIS/Include/core_cmFunc.h ****  
 411:libs/CMSIS/Include/core_cmFunc.h **** 
 412:libs/CMSIS/Include/core_cmFunc.h **** /** \brief  Set Process Stack Pointer
 413:libs/CMSIS/Include/core_cmFunc.h **** 
 414:libs/CMSIS/Include/core_cmFunc.h ****     This function assigns the given value to the Process Stack Pointer (PSP).
 415:libs/CMSIS/Include/core_cmFunc.h **** 
 416:libs/CMSIS/Include/core_cmFunc.h ****     \param [in]    topOfProcStack  Process Stack Pointer value to set
 417:libs/CMSIS/Include/core_cmFunc.h ****  */
 418:libs/CMSIS/Include/core_cmFunc.h **** __attribute__( ( always_inline ) ) static __INLINE void __set_PSP(uint32_t topOfProcStack)
 419:libs/CMSIS/Include/core_cmFunc.h **** {
 420:libs/CMSIS/Include/core_cmFunc.h ****   __ASM volatile ("MSR psp, %0\n" : : "r" (topOfProcStack) );
 421:libs/CMSIS/Include/core_cmFunc.h **** }
 422:libs/CMSIS/Include/core_cmFunc.h **** 
 423:libs/CMSIS/Include/core_cmFunc.h **** 
 424:libs/CMSIS/Include/core_cmFunc.h **** /** \brief  Get Main Stack Pointer
 425:libs/CMSIS/Include/core_cmFunc.h **** 
 426:libs/CMSIS/Include/core_cmFunc.h ****     This function returns the current value of the Main Stack Pointer (MSP).
 427:libs/CMSIS/Include/core_cmFunc.h **** 
 428:libs/CMSIS/Include/core_cmFunc.h ****     \return               MSP Register value
 429:libs/CMSIS/Include/core_cmFunc.h ****  */
 430:libs/CMSIS/Include/core_cmFunc.h **** __attribute__( ( always_inline ) ) static __INLINE uint32_t __get_MSP(void)
 431:libs/CMSIS/Include/core_cmFunc.h **** {
 432:libs/CMSIS/Include/core_cmFunc.h ****   register uint32_t result;
 433:libs/CMSIS/Include/core_cmFunc.h **** 
 434:libs/CMSIS/Include/core_cmFunc.h ****   __ASM volatile ("MRS %0, msp\n" : "=r" (result) );
 366              		.loc 2 434 0
 367              	@ 434 "libs/CMSIS/Include/core_cmFunc.h" 1
 368 0038 EFF30884 		MRS r4, msp
 369              	
 370              	@ 0 "" 2
 435:libs/CMSIS/Include/core_cmFunc.h ****   return(result);
 371              		.loc 2 435 0
 372              		.thumb
 373 003c 2346     		mov	r3, r4
 374              		.loc 1 78 0
 375 003e 1946     		mov	r1, r3
 376              	.LBE5:
 377              	.LBE4:
 378 0040 40F20003 		movw	r3, #:lower16:__malloc_margin
 379 0044 C0F20003 		movt	r3, #:upper16:__malloc_margin
 380 0048 1B68     		ldr	r3, [r3, #0]
 381 004a CB1A     		subs	r3, r1, r3
 382 004c 9A42     		cmp	r2, r3
 383 004e 06D9     		bls	.L13
  79:src/syscalls.c ****         r->_errno = ENOMEM;
 384              		.loc 1 79 0
 385 0050 7B68     		ldr	r3, [r7, #4]
 386 0052 4FF00C02 		mov	r2, #12
 387 0056 1A60     		str	r2, [r3, #0]
  80:src/syscalls.c ****         return (void*)-1;
 388              		.loc 1 80 0
 389 0058 4FF0FF33 		mov	r3, #-1
 390 005c 12E0     		b	.L14
 391              	.L13:
  81:src/syscalls.c ****     }
  82:src/syscalls.c **** 
  83:src/syscalls.c ****     void *ret = __brkval;
 392              		.loc 1 83 0
 393 005e 40F20003 		movw	r3, #:lower16:__brkval
 394 0062 C0F20003 		movt	r3, #:upper16:__brkval
 395 0066 1B68     		ldr	r3, [r3, #0]
 396 0068 FB60     		str	r3, [r7, #12]
  84:src/syscalls.c ****     __brkval += incr;
 397              		.loc 1 84 0
 398 006a 40F20003 		movw	r3, #:lower16:__brkval
 399 006e C0F20003 		movt	r3, #:upper16:__brkval
 400 0072 1A68     		ldr	r2, [r3, #0]
 401 0074 3B68     		ldr	r3, [r7, #0]
 402 0076 D218     		adds	r2, r2, r3
 403 0078 40F20003 		movw	r3, #:lower16:__brkval
 404 007c C0F20003 		movt	r3, #:upper16:__brkval
 405 0080 1A60     		str	r2, [r3, #0]
  85:src/syscalls.c **** 
  86:src/syscalls.c ****     return ret;
 406              		.loc 1 86 0
 407 0082 FB68     		ldr	r3, [r7, #12]
 408              	.L14:
  87:src/syscalls.c **** }
 409              		.loc 1 87 0
 410 0084 1846     		mov	r0, r3
 411 0086 07F11007 		add	r7, r7, #16
 412 008a BD46     		mov	sp, r7
 413 008c 90BC     		pop	{r4, r7}
 414 008e 7047     		bx	lr
 415              		.cfi_endproc
 416              	.LFE117:
 418              		.section	.text._kill_r,"ax",%progbits
 419              		.align	2
 420              		.global	_kill_r
 421              		.thumb
 422              		.thumb_func
 424              	_kill_r:
 425              	.LFB118:
  88:src/syscalls.c **** 
  89:src/syscalls.c **** 
  90:src/syscalls.c **** int _kill_r(struct _reent *r, int pid, int signal)
  91:src/syscalls.c **** {
 426              		.loc 1 91 0
 427              		.cfi_startproc
 428              		@ args = 0, pretend = 0, frame = 16
 429              		@ frame_needed = 1, uses_anonymous_args = 0
 430              		@ link register save eliminated.
 431 0000 80B4     		push	{r7}
 432              	.LCFI24:
 433              		.cfi_def_cfa_offset 4
 434              		.cfi_offset 7, -4
 435 0002 85B0     		sub	sp, sp, #20
 436              	.LCFI25:
 437              		.cfi_def_cfa_offset 24
 438 0004 00AF     		add	r7, sp, #0
 439              	.LCFI26:
 440              		.cfi_def_cfa_register 7
 441 0006 F860     		str	r0, [r7, #12]
 442 0008 B960     		str	r1, [r7, #8]
 443 000a 7A60     		str	r2, [r7, #4]
  92:src/syscalls.c ****     r->_errno = ENOSYS;
 444              		.loc 1 92 0
 445 000c FB68     		ldr	r3, [r7, #12]
 446 000e 4FF05802 		mov	r2, #88
 447 0012 1A60     		str	r2, [r3, #0]
  93:src/syscalls.c ****     return -1;
 448              		.loc 1 93 0
 449 0014 4FF0FF33 		mov	r3, #-1
  94:src/syscalls.c **** }
 450              		.loc 1 94 0
 451 0018 1846     		mov	r0, r3
 452 001a 07F11407 		add	r7, r7, #20
 453 001e BD46     		mov	sp, r7
 454 0020 80BC     		pop	{r7}
 455 0022 7047     		bx	lr
 456              		.cfi_endproc
 457              	.LFE118:
 459              		.section	.text._getpid_r,"ax",%progbits
 460              		.align	2
 461              		.global	_getpid_r
 462              		.thumb
 463              		.thumb_func
 465              	_getpid_r:
 466              	.LFB119:
  95:src/syscalls.c **** 
  96:src/syscalls.c **** 
  97:src/syscalls.c **** int _getpid_r(struct _reent *r)
  98:src/syscalls.c **** {
 467              		.loc 1 98 0
 468              		.cfi_startproc
 469              		@ args = 0, pretend = 0, frame = 8
 470              		@ frame_needed = 1, uses_anonymous_args = 0
 471              		@ link register save eliminated.
 472 0000 80B4     		push	{r7}
 473              	.LCFI27:
 474              		.cfi_def_cfa_offset 4
 475              		.cfi_offset 7, -4
 476 0002 83B0     		sub	sp, sp, #12
 477              	.LCFI28:
 478              		.cfi_def_cfa_offset 16
 479 0004 00AF     		add	r7, sp, #0
 480              	.LCFI29:
 481              		.cfi_def_cfa_register 7
 482 0006 7860     		str	r0, [r7, #4]
  99:src/syscalls.c ****     r->_errno = ENOSYS;
 483              		.loc 1 99 0
 484 0008 7B68     		ldr	r3, [r7, #4]
 485 000a 4FF05802 		mov	r2, #88
 486 000e 1A60     		str	r2, [r3, #0]
 100:src/syscalls.c ****     return -1;
 487              		.loc 1 100 0
 488 0010 4FF0FF33 		mov	r3, #-1
 101:src/syscalls.c **** }
 489              		.loc 1 101 0
 490 0014 1846     		mov	r0, r3
 491 0016 07F10C07 		add	r7, r7, #12
 492 001a BD46     		mov	sp, r7
 493 001c 80BC     		pop	{r7}
 494 001e 7047     		bx	lr
 495              		.cfi_endproc
 496              	.LFE119:
 498              		.section	.text.__malloc_lock,"ax",%progbits
 499              		.align	2
 500              		.global	__malloc_lock
 501              		.thumb
 502              		.thumb_func
 504              	__malloc_lock:
 505              	.LFB120:
 102:src/syscalls.c **** 
 103:src/syscalls.c **** 
 104:src/syscalls.c **** void __malloc_lock(struct _reent *r)
 105:src/syscalls.c **** {
 506              		.loc 1 105 0
 507              		.cfi_startproc
 508              		@ args = 0, pretend = 0, frame = 8
 509              		@ frame_needed = 1, uses_anonymous_args = 0
 510 0000 80B5     		push	{r7, lr}
 511              	.LCFI30:
 512              		.cfi_def_cfa_offset 8
 513              		.cfi_offset 14, -4
 514              		.cfi_offset 7, -8
 515 0002 82B0     		sub	sp, sp, #8
 516              	.LCFI31:
 517              		.cfi_def_cfa_offset 16
 518 0004 00AF     		add	r7, sp, #0
 519              	.LCFI32:
 520              		.cfi_def_cfa_register 7
 521 0006 7860     		str	r0, [r7, #4]
 106:src/syscalls.c ****     vPortEnterCritical();
 522              		.loc 1 106 0
 523 0008 FFF7FEFF 		bl	vPortEnterCritical
 107:src/syscalls.c **** }
 524              		.loc 1 107 0
 525 000c 07F10807 		add	r7, r7, #8
 526 0010 BD46     		mov	sp, r7
 527 0012 80BD     		pop	{r7, pc}
 528              		.cfi_endproc
 529              	.LFE120:
 531              		.section	.text.__malloc_unlock,"ax",%progbits
 532              		.align	2
 533              		.global	__malloc_unlock
 534              		.thumb
 535              		.thumb_func
 537              	__malloc_unlock:
 538              	.LFB121:
 108:src/syscalls.c **** 
 109:src/syscalls.c **** 
 110:src/syscalls.c **** void __malloc_unlock(struct _reent *r)
 111:src/syscalls.c **** {
 539              		.loc 1 111 0
 540              		.cfi_startproc
 541              		@ args = 0, pretend = 0, frame = 8
 542              		@ frame_needed = 1, uses_anonymous_args = 0
 543 0000 80B5     		push	{r7, lr}
 544              	.LCFI33:
 545              		.cfi_def_cfa_offset 8
 546              		.cfi_offset 14, -4
 547              		.cfi_offset 7, -8
 548 0002 82B0     		sub	sp, sp, #8
 549              	.LCFI34:
 550              		.cfi_def_cfa_offset 16
 551 0004 00AF     		add	r7, sp, #0
 552              	.LCFI35:
 553              		.cfi_def_cfa_register 7
 554 0006 7860     		str	r0, [r7, #4]
 112:src/syscalls.c ****     vPortExitCritical();
 555              		.loc 1 112 0
 556 0008 FFF7FEFF 		bl	vPortExitCritical
 113:src/syscalls.c **** }
 557              		.loc 1 113 0
 558 000c 07F10807 		add	r7, r7, #8
 559 0010 BD46     		mov	sp, r7
 560 0012 80BD     		pop	{r7, pc}
 561              		.cfi_endproc
 562              	.LFE121:
 564              		.text
 565              	.Letext0:
 566              		.file 3 "/usr/local/csl/arm-2012.03/bin/../lib/gcc/arm-none-eabi/4.6.3/../../../../arm-none-eabi/i
 567              		.file 4 "/usr/local/csl/arm-2012.03/bin/../lib/gcc/arm-none-eabi/4.6.3/../../../../arm-none-eabi/i
 568              		.file 5 "/usr/local/csl/arm-2012.03/bin/../lib/gcc/arm-none-eabi/4.6.3/include/stddef.h"
 569              		.file 6 "/usr/local/csl/arm-2012.03/bin/../lib/gcc/arm-none-eabi/4.6.3/../../../../arm-none-eabi/i
 570              		.file 7 "/usr/local/csl/arm-2012.03/bin/../lib/gcc/arm-none-eabi/4.6.3/../../../../arm-none-eabi/i
 571              		.file 8 "/usr/local/csl/arm-2012.03/bin/../lib/gcc/arm-none-eabi/4.6.3/../../../../arm-none-eabi/i
 572              		.file 9 "/usr/local/csl/arm-2012.03/bin/../lib/gcc/arm-none-eabi/4.6.3/../../../../arm-none-eabi/i
 573              		.file 10 "/usr/local/csl/arm-2012.03/bin/../lib/gcc/arm-none-eabi/4.6.3/../../../../arm-none-eabi/
 574              		.file 11 "/usr/local/csl/arm-2012.03/bin/../lib/gcc/arm-none-eabi/4.6.3/../../../../arm-none-eabi/
 575              		.file 12 "libs/CMSIS/Include/core_cm4.h"